(lp0
(lp1
(lp2
I1
aI1
aI0
aI1
aI1
aI0
aI1
aI1
aI1
aI0
aI0
aI1
aI1
aI0
aa(lp3
I0
aI0
aI0
aI1
aI1
aI1
aI1
aI0
aI0
aI1
aI1
aI1
aI0
aI1
aa(lp4
I1
aI1
aI1
aI0
aI0
aI1
aI0
aI1
aI1
aI1
aI1
aI0
aI1
aI1
aa(lp5
I1
aI1
aI1
aI1
aI0
aI1
aI1
aI1
aI0
aI1
aI1
aI1
aI1
aI1
aa(lp6
I1
aI1
aI1
aI1
aI1
aI0
aI0
aI1
aI1
aI1
aI0
aI1
aI0
aI1
aa(lp7
I0
aI1
aI1
aI1
aI0
aI1
aI1
aI0
aI1
aI0
aI0
aI1
aI1
aI1
aa(lp8
I0
aI0
aI0
aI1
aI0
aI1
aI0
aI1
aI0
aI1
aI1
aI0
aI1
aI1
aa(lp9
I1
aI1
aI0
aI0
aI1
aI1
aI1
aI1
aI1
aI0
aI1
aI0
aI1
aI1
aa(lp10
I1
aI0
aI0
aI1
aI1
aI1
aI0
aI1
aI0
aI1
aI0
aI1
aI1
aI1
aa(lp11
I1
aI0
aI1
aI1
aI0
aI1
aI1
aI1
aI0
aI1
aI1
aI0
aI1
aI0
aa(lp12
I1
aI0
aI1
aI0
aI1
aI1
aI1
aI1
aI0
aI0
aI1
aI0
aI1
aI0
aa(lp13
I1
aI1
aI1
aI0
aI0
aI0
aI1
aI1
aI1
aI1
aI0
aI1
aI1
aI0
aa(lp14
I1
aI0
aI1
aI1
aI1
aI0
aI1
aI1
aI1
aI0
aI1
aI0
aI1
aI1
aa(lp15
I1
aI0
aI1
aI0
aI0
aI1
aI1
aI0
aI1
aI1
aI1
aI1
aI1
aI1
aaa(lp16
(lp17
(lp18
F3435.916550619021
aF88.5539095787451
aF0.0
aF1983.6494689037552
aF2237.3837990208617
aF0.0
aF4014.302597611018
aF3304.7436385282276
aF4197.871949388332
aF0.0
aF0.0
aF4817.940225031861
aF4065.545207277198
aF0.0
aa(lp19
F0.0
aF0.0
aF0.0
aF51.12461642107741
aF57.66411369791485
aF87.39062279140975
aF103.46065860840636
aF0.0
aF0.0
aF5.304258143647309
aF85.21056517593698
aF124.17281873926903
aF0.0
aF104.78420352866439
aa(lp20
F50.57946954524301
aF1.3035851443607949
aF0.7445706849362392
aF0.0
aF0.0
aF49.915033283622165
aF0.0
aF48.648498226669574
aF61.79606905198672
aF3.0296410910931817
aF48.669846500867784
aF0.0
aF59.84811242264847
aF59.84975091910258
aa(lp21
F1983.6494689037552
aF51.12461642107741
aF29.200923952235964
aF1145.2155945909794
aF0.0
aF1957.591294523226
aF2317.5676994644814
aF1907.9197258875624
aF0.0
aF118.81789183139426
aF1908.7569725640508
aF2781.5298851983657
aF2347.1514725136976
aF2347.21573183967
aa(lp22
F2237.3837990208617
aF57.66411369791485
aF32.93609843440687
aF1291.703427390286
aF1456.92894177513
aF0.0
aF0.0
aF2151.967245953107
aF2733.550291910743
aF134.01623138804322
aF0.0
aF3137.323402745373
aF0.0
aF2647.4548722195523
aa(lp23
F0.0
aF87.39062279140975
aF49.915033283622165
aF1957.591294523226
aF0.0
aF3346.2377691091438
aF3961.568786146553
aF0.0
aF4142.726682546029
aF0.0
aF0.0
aF4754.649442811035
aF4012.1382482232375
aF4012.2480908569823
aa(lp24
F0.0
aF0.0
aF0.0
aF2317.5676994644814
aF0.0
aF3961.568786146553
aF0.0
aF3861.0486538714927
aF0.0
aF240.45123863795573
aF3862.7429862426884
aF0.0
aF4749.919983748609
aF4750.050025060452
aa(lp25
F3304.7436385282276
aF85.17318888156284
aF0.0
aF0.0
aF2151.967245953107
aF3261.3309351420276
aF3861.0486538714927
aF3178.5785118748545
aF4037.6098824628953
aF0.0
aF3179.9733579257204
aF0.0
aF3910.334975532996
aF3910.4420310395517
aa(lp26
F4197.871949388332
aF0.0
aF0.0
aF2423.547353450685
aF2733.550291910743
aF4142.726682546029
aF0.0
aF4037.6098824628953
aF0.0
aF251.44679189721668
aF0.0
aF5886.375826225223
aF4967.128256221579
aF4967.264244170163
aa(lp27
F205.80670499146333
aF0.0
aF3.0296410910931817
aF118.81789183139426
aF0.0
aF203.10312903642662
aF240.45123863795573
aF197.94962685122815
aF0.0
aF12.327540321610028
aF198.036492490775
aF0.0
aF243.52060091587833
aF0.0
aa(lp28
F3306.1938492422637
aF0.0
aF48.669846500867784
aF0.0
aF2152.9115872690118
aF3262.7620951899726
aF3862.7429862426884
aF3179.9733579257204
aF0.0
aF0.0
aF3181.3688160726856
aF0.0
aF3912.050936072529
aF0.0
aa(lp29
F4817.940225031861
aF124.17281873926903
aF70.92397539133971
aF0.0
aF0.0
aF0.0
aF5628.9696433388535
aF4634.005824912934
aF5886.375826225223
aF288.5880340664836
aF0.0
aF6755.853254875485
aF5700.8234927292915
aF0.0
aa(lp30
F4065.545207277198
aF0.0
aF59.84811242264847
aF2347.1514725136976
aF2647.3823932976857
aF0.0
aF4749.919983748609
aF3910.334975532996
aF4967.128256221579
aF0.0
aF3912.050936072529
aF0.0
aF4810.552756130459
aF4810.684457420845
aa(lp31
F4065.656512064208
aF0.0
aF59.84975091910258
aF0.0
aF0.0
aF4012.2480908569823
aF4750.050025060452
aF0.0
aF4967.264244170163
aF243.52726792048304
aF3912.1580385579314
aF5700.979567477521
aF4810.684457420845
aF4810.816162316895
aaa(lp32
(lp33
F3880.556870960602
aF100.01362873737799
aF0.0
aF2240.352599583651
aF2526.9225682160763
aF0.0
aF4533.791580144144
aF3732.4089349444803
aF4741.116554090005
aF0.0
aF0.0
aF5441.427569233746
aF4591.665471461505
aF0.0
aa(lp34
F0.0
aF0.0
aF0.0
aF57.74062862274537
aF65.1263991199036
aF98.69980156230336
aF116.84945304175918
aF0.0
aF0.0
aF5.990679657505341
aF96.23762373167803
aF140.24196392616204
aF0.0
aF118.34427727822295
aa(lp35
F57.124934549988915
aF1.4722814754974411
aF0.8409252217795028
aF0.0
aF0.0
aF56.374513908985975
aF0.0
aF54.94407715501872
aF69.79306884354904
aF3.4217054981932296
aF54.96818809918821
aF0.0
aF67.59302807685755
aF67.5948786103555
aa(lp36
F2240.352599583651
aF57.74062862274537
aF32.97980157895048
aF1293.417397905256
aF0.0
aF2210.92224929798
aF2617.4830289324027
aF2154.822706680803
aF0.0
aF134.19405848384227
aF2155.7683010499536
aF3141.4863396039477
aF2650.8952239271825
aF2650.967799021849
aa(lp37
F2526.9225682160763
aF65.1263991199036
aF37.19834320750478
aF1458.8621512066893
aF1645.4694205213625
aF0.0
aF0.0
aF2430.4522997978493
aF3087.2977300567704
aF151.35920790608913
aF0.0
aF3543.3229263835474
aF0.0
aF2990.0607432094926
aa(lp38
F0.0
aF98.69980156230336
aF56.374513908985975
aF2210.92224929798
aF0.0
aF3779.2728011525523
aF4474.233511315754
aF0.0
aF4678.834964594677
aF0.0
aF0.0
aF5369.946357103827
aF4531.347143335457
aF4531.47120065199
aa(lp39
F0.0
aF0.0
aF0.0
aF2617.4830289324027
aF0.0
aF4474.233511315754
aF0.0
aF4360.705116716189
aF0.0
aF271.5679186269527
aF4362.618711830584
aF0.0
aF5364.604861002207
aF5364.751730898127
aa(lp40
F3732.4089349444803
aF96.1954105888942
aF0.0
aF0.0
aF2430.4522997978493
aF3683.378214340413
aF4360.705116716189
aF3589.916839488275
aF4560.1150496006685
aF0.0
aF3591.492191900616
aF0.0
aF4416.369557732215
aF4416.49046724076
aa(lp41
F4741.116554090005
aF0.0
aF0.0
aF2737.1774593411087
aF3087.2977300567704
aF4678.834964594677
aF0.0
aF4560.1150496006685
aF0.0
aF283.9864011836816
aF0.0
aF6648.12891145431
aF5609.921952310087
aF5610.0755383941705
aa(lp42
F232.44005242225668
aF0.0
aF3.4217054981932296
aF134.19405848384227
aF0.0
aF229.3866079936976
aF271.5679186269527
aF223.56619355124573
aF0.0
aF13.922841428860991
aF223.66430043173244
aF0.0
aF275.0344856117981
aF0.0
aa(lp43
F3734.0468167346185
aF0.0
aF54.96818809918821
aF0.0
aF2431.518847872571
aF3684.994580126857
aF4362.618711830584
aF3591.492191900616
aF0.0
aF0.0
aF3593.06823562012
aF0.0
aF4418.307579905886
aF0.0
aa(lp44
F5441.427569233746
aF140.24196392616204
aF80.10221318417032
aF0.0
aF0.0
aF0.0
aF6357.411917338873
aF5233.690306214677
aF6648.12891145431
aF325.93407376903406
aF0.0
aF7630.124999015299
aF6438.564339072397
aF0.0
aa(lp45
F4591.665471461505
aF0.0
aF67.59302807685755
aF2650.8952239271825
aF2989.9788848249523
aF0.0
aF5364.604861002207
aF4416.369557732215
aF5609.921952310087
aF0.0
aF4418.307579905886
aF0.0
aF5433.084091508951
aF5433.232836200446
aa(lp46
F4591.791180147859
aF0.0
aF67.5948786103555
aF0.0
aF0.0
aF4531.47120065199
aF5364.751730898127
aF0.0
aF5610.0755383941705
aF275.0420153902856
aF4418.428542472789
aF6438.740611379278
aF5433.232836200446
aF5433.381584964211
aaa(lp47
(lp48
F4294.895688273776
aF110.69238697343138
aF0.0
aF2479.561836129694
aF2796.729748776077
aF0.0
aF5017.878247013772
aF4130.929548160284
aF5247.339936735415
aF0.0
aF0.0
aF6022.425281289826
aF5081.931509096497
aF0.0
aa(lp49
F0.0
aF0.0
aF0.0
aF63.90577052634677
aF72.08014212239355
aF109.23827848926219
aF129.32582326050795
aF0.0
aF0.0
aF6.630322679559136
aF106.51320646992123
aF155.2160234240863
aF0.0
aF130.9802544108305
aa(lp50
F63.22433693155376
aF1.6294814304509937
aF0.930713356170299
aF0.0
aF0.0
aF62.393791604527706
aF0.0
aF60.81062278333697
aF77.2450863149834
aF3.7870513638664773
aF60.83730812608473
aF0.0
aF74.81014052831058
aF74.81218864887822
aa(lp51
F2479.561836129694
aF63.90577052634677
aF36.50115494029495
aF1431.5194932387244
aF0.0
aF2446.9891181540324
aF2896.959624330602
aF2384.899657359453
aF0.0
aF148.52236478924283
aF2385.9462157050634
aF3476.912356497957
aF2933.939340642122
aF2934.0196647995876
aa(lp52
F2796.729748776077
aF72.08014212239355
aF41.170123043008594
aF1614.6292842378573
aF1821.1611772189124
aF0.0
aF0.0
aF2689.9590574413837
aF3416.9378648884285
aF167.52028923505404
aF0.0
aF3921.654253431717
aF0.0
aF3309.3185902744403
aa(lp53
F0.0
aF109.23827848926219
aF62.393791604527706
aF2446.9891181540324
aF0.0
aF4182.79721138643
aF4951.960982683191
aF0.0
aF5178.408353182536
aF0.0
aF0.0
aF5943.311803513794
aF5015.172810279047
aF5015.310113571228
aa(lp54
F0.0
aF0.0
aF0.0
aF2896.959624330602
aF0.0
aF4951.960982683191
aF0.0
aF4826.310817339366
aF0.0
aF300.56404829744463
aF4828.428732803361
aF0.0
aF5937.3999796857615
aF5937.562531325565
aa(lp55
F4130.929548160284
aF106.46648610195355
aF0.0
aF0.0
aF2689.9590574413837
aF4076.6636689275347
aF4826.310817339366
aF3973.223139843568
aF5047.0123530786195
aF0.0
aF3974.9666974071506
aF0.0
aF4887.918719416245
aF4888.052538799439
aa(lp56
F5247.339936735415
aF0.0
aF0.0
aF3029.4341918133564
aF3416.9378648884285
aF5178.408353182536
aF0.0
aF5047.0123530786195
aF0.0
aF314.30848987152086
aF0.0
aF7357.969782781529
aF6208.910320276974
aF6209.080305212704
aa(lp57
F257.2583812393292
aF0.0
aF3.7870513638664773
aF148.52236478924283
aF0.0
aF253.87891129553327
aF300.56404829744463
aF247.4370335640352
aF0.0
aF15.409425402012534
aF247.54561561346875
aF0.0
aF304.4007511448479
aF0.0
aa(lp58
F4132.74231155283
aF0.0
aF60.83730812608473
aF0.0
aF2691.139484086265
aF4078.452618987466
aF4828.428732803361
aF3974.9666974071506
aF0.0
aF0.0
aF3976.711020090857
aF0.0
aF4890.063670090662
aF0.0
aa(lp59
F6022.425281289826
aF155.2160234240863
aF88.65496923917465
aF0.0
aF0.0
aF0.0
aF7036.212054173567
aF5792.507281141168
aF7357.969782781529
aF360.7350425831045
aF0.0
aF8444.816568594355
aF7126.029365911614
aF0.0
aa(lp60
F5081.931509096497
aF0.0
aF74.81014052831058
aF2933.939340642122
aF3309.2279916221073
aF0.0
aF5937.3999796857615
aF4887.918719416245
aF6208.910320276974
aF0.0
aF4890.063670090662
aF0.0
aF6013.190945163074
aF6013.355571776057
aa(lp61
F5082.07064008026
aF0.0
aF74.81218864887822
aF0.0
aF0.0
aF5015.310113571228
aF5937.562531325565
aF0.0
aF6209.080305212704
aF304.4090849006038
aF4890.197548197414
aF7126.224459346901
aF6013.355571776057
aF6013.5202028961185
aaa(lp62
(lp63
F4650.696496885922
aF119.86244456060062
aF0.0
aF2684.9754643832243
aF3028.4184272231473
aF0.0
aF5433.57289186378
aF4473.1469569714345
aF5682.043810370973
aF0.0
aF0.0
aF6521.339327267596
aF5502.932499920285
aF0.0
aa(lp64
F0.0
aF0.0
aF0.0
aF69.1998978995299
aF78.05145661136868
aF118.2878737853705
aF140.0395252524216
aF0.0
aF0.0
aF7.179596594915799
aF115.33704940825864
aF168.07453982406162
aF0.0
aF141.83101396683938
aa(lp65
F68.4620124973729
aF1.7644720920765764
aF1.0078161751318029
aF0.0
aF0.0
aF67.56266254262289
aF0.0
aF65.84833972197947
aF83.64427879065269
aF4.100780971129882
aF65.87723575090376
aF0.0
aF81.00761549028326
aF81.0098332827142
aa(lp66
F2684.9754643832243
aF69.1998978995299
aF39.52500962400533
aF1550.1104510189123
aF0.0
aF2649.7043340977884
aF3136.951617539602
aF2582.4712139548997
aF0.0
aF160.82636035152854
aF2583.6044720326236
aF3764.949207146767
aF3176.9948338569106
aF3177.081812285458
aa(lp67
F3028.4184272231473
aF78.05145661136868
aF44.58076770880524
aF1748.389553785074
aF1972.0311089931974
aF0.0
aF0.0
aF2912.8025622054975
aF3700.0062659730193
aF181.39812438981863
aF0.0
aF4246.534729173627
aF0.0
aF3583.4715187354577
aa(lp68
F0.0
aF118.2878737853705
aF67.56266254262289
aF2649.7043340977884
aF0.0
aF4529.311478108954
aF5362.194862557147
aF0.0
aF5607.401747461403
aF0.0
aF0.0
aF6435.671874399297
aF5430.643329411521
aF5430.792007280858
aa(lp69
F0.0
aF0.0
aF0.0
aF3136.951617539602
aF0.0
aF5362.194862557147
aF0.0
aF5226.135496693355
aF0.0
aF325.4635893307574
aF5228.428866019178
aF0.0
aF6429.270299049678
aF6429.44631690824
aa(lp70
F4473.1469569714345
aF115.28645859828072
aF0.0
aF0.0
aF2912.8025622054975
aF4414.385545108224
aF5226.135496693355
aF4302.375722015132
aF5465.120546300562
aF0.0
aF4304.263720616637
aF0.0
aF5292.847164488153
aF5292.992069832033
aa(lp71
F5682.043810370973
aF0.0
aF0.0
aF3280.40073752653
aF3700.0062659730193
aF5607.401747461403
aF0.0
aF5465.120546300562
aF0.0
aF340.346657726279
aF0.0
aF7967.523957893434
aF6723.273292720374
aF6723.45735966926
aa(lp72
F278.57036334802484
aF0.0
aF4.100780971129882
aF160.82636035152854
aF0.0
aF274.91092894735846
aF325.4635893307574
aF267.93538859115324
aF0.0
aF16.68598399999055
aF268.0529658720879
aF0.0
aF329.6181350489986
aF0.0
aa(lp73
F4475.109894600493
aF0.0
aF65.87723575090376
aF0.0
aF2914.080778595518
aF4416.322696643601
aF5228.428866019178
aF4304.263720616637
aF0.0
aF0.0
aF4306.152547722892
aF0.0
aF5295.169808694563
aF0.0
aa(lp74
F6521.339327267596
aF168.07453982406162
aF95.99938736530179
aF0.0
aF0.0
aF0.0
aF7619.110946287917
aF6272.374296339884
aF7967.523957893434
aF390.6193119953361
aF0.0
aF9144.408079487317
aF7716.368967757521
aF0.0
aa(lp75
F5502.932499920285
aF0.0
aF81.00761549028326
aF3176.9948338569106
aF3583.373414645019
aF0.0
aF6429.270299049678
aF5292.847164488153
aF6723.273292720374
aF0.0
aF5295.169808694563
aF0.0
aF6511.339993688201
aF6511.518258416349
aa(lp76
F5503.083156892132
aF0.0
aF81.0098332827142
aF0.0
aF0.0
aF5430.792007280858
aF6429.44631690824
aF0.0
aF6723.45735966926
aF329.62715919568643
aF5295.31477762682
aF7716.5802232621745
aF6511.518258416349
aF6511.696528024954
aaa(lp77
(lp78
F4923.712059678758
aF126.8988772285568
aF0.0
aF2842.5948850408363
aF3206.1994030047636
aF0.0
aF5752.546611615519
aF4735.739610508459
aF6015.603824390532
aF0.0
aF0.0
aF6904.169539428115
aF5825.977922145261
aF0.0
aa(lp79
F0.0
aF0.0
aF0.0
aF73.26222471077148
aF82.6334073724691
aF125.23187248636185
aF148.2604379319809
aF0.0
aF0.0
aF7.601069293961838
aF122.10782223253251
aF177.94122648313274
aF0.0
aF150.1570946142356
aa(lp80
F72.48102231330391
aF1.8680540698670216
aF1.0669792489702206
aF0.0
aF0.0
aF71.52887671080346
aF0.0
aF69.7139158867986
aF88.55455187850565
aF4.341514165711132
aF69.74450823488812
aF0.0
aF85.76310528592877
aF85.76545327215953
aa(lp81
F2842.5948850408363
aF73.26222471077148
aF41.845294930542885
aF1641.108493453924
aF0.0
aF2805.2531901654156
aF3321.1039508277318
aF2734.0732013875986
aF0.0
aF170.26754820644376
aF2735.2729865096235
aF3985.9676561820647
aF3363.497873377155
aF3363.5899578074886
aa(lp82
F3206.1994030047636
aF82.6334073724691
aF47.19784740727749
aF1851.0274185279936
aF2087.797679318151
aF0.0
aF0.0
aF3083.79639750682
aF3917.2122895692787
aF192.04696183879267
aF0.0
aF4495.824286077839
aF0.0
aF3793.8364595770613
aa(lp83
F0.0
aF125.23187248636185
aF71.52887671080346
aF2805.2531901654156
aF0.0
aF4795.201226684887
aF5676.978389967752
aF0.0
aF5936.579956556276
aF0.0
aF0.0
aF6813.473044592977
aF5749.445071451498
aF5749.6024773408635
aa(lp84
F0.0
aF0.0
aF0.0
aF3321.1039508277318
aF0.0
aF5676.978389967752
aF0.0
aF5532.931763621705
aF0.0
aF344.5696791539077
aF5535.359763430854
aF0.0
aF6806.695669683441
aF6806.882020535083
aa(lp85
F4735.739610508459
aF122.0542615279447
aF0.0
aF0.0
aF3083.79639750682
aF4673.528655132556
aF5532.931763621705
aF4554.943381478335
aF5785.94624685488
aF0.0
aF4556.942213586411
aF0.0
aF5603.559688592184
aF5603.713100492886
aa(lp86
F6015.603824390532
aF0.0
aF0.0
aF3472.974141132104
aF3917.2122895692787
aF5936.579956556276
aF0.0
aF5785.94624685488
aF0.0
aF360.3264466387611
aF0.0
aF8435.251327092052
aF7117.957883093273
aF7118.152755550898
aa(lp87
F294.9236223873518
aF0.0
aF4.341514165711132
aF170.26754820644376
aF0.0
aF291.0493637032538
aF344.5696791539077
aF283.6643296126351
aF0.0
aF17.665521863955664
aF283.78880917746375
aF0.0
aF348.9681142848797
aF0.0
aa(lp88
F4737.817780882094
aF0.0
aF69.74450823488812
aF0.0
aF3085.1496506074336
aF4675.579525659701
aF5535.359763430854
aF4556.942213586411
aF0.0
aF0.0
aF4558.94192283597
aF0.0
aF5606.018681841281
aF0.0
aa(lp89
F6904.169539428115
aF177.94122648313274
aF101.634957604481
aF0.0
aF0.0
aF0.0
aF8066.3849974702935
aF6640.589207742767
aF8435.251327092052
aF413.5503184313755
aF0.0
aF9681.223526356463
aF8169.3524763266405
aF0.0
aa(lp90
F5825.977922145261
aF0.0
aF85.76310528592877
aF3363.497873377155
aF3793.732596361407
aF0.0
aF6806.695669683441
aF5603.559688592184
aF7117.957883093273
aF0.0
aF5606.018681841281
aF0.0
aF6893.583202657572
aF6893.771932279552
aa(lp91
F5826.137423318827
aF0.0
aF85.76545327215953
aF0.0
aF0.0
aF5749.6024773408635
aF6806.882020535083
aF0.0
aF7118.152755550898
aF348.9776681871618
aF5606.172161063267
aF8169.576133423298
aF6893.771932279552
aF6893.960667068492
aaa(lp92
(lp93
F5095.336817227502
aF131.3221637192335
aF0.0
aF2941.6785950631206
aF3317.957196418362
aF0.0
aF5953.061874396906
aF4900.812253387688
aF6225.288415072645
aF0.0
aF0.0
aF7144.826671469481
aF6029.052764104592
aF0.0
aa(lp94
F0.0
aF0.0
aF0.0
aF75.81591010119784
aF85.51374203335743
aF129.59705255626412
aF153.42831968577443
aF0.0
aF0.0
aF7.866018108773831
aF126.36410796399969
aF184.1436850109546
aF0.0
aF155.39108771639792
aa(lp95
F75.00747750211882
aF1.9331684232132225
aF1.1041707119750663
aF0.0
aF0.0
aF74.0221431679867
aF0.0
aF72.14391865032862
aF91.64127858221501
aF4.49284537822993
aF72.1755773492242
aF0.0
aF88.75253114449235
aF88.75496097396712
aa(lp96
F2941.6785950631206
aF75.81591010119784
aF43.303887250719846
aF1698.3122543331888
aF0.0
aF2903.035288872543
aF3436.8669470075233
aF2829.3741947481403
aF0.0
aF176.20252700397657
aF2830.615800518526
aF4124.90566155235
aF3480.7385852703956
aF3480.8338794676365
aa(lp97
F3317.957196418362
aF85.51374203335743
aF48.843012481903145
aF1915.5482776014774
aF2160.57158773943
aF0.0
aF0.0
aF3191.2876160502396
aF4053.753704119047
aF198.74110090786453
aF0.0
aF4652.534252811802
aF0.0
aF3926.0773897253976
aa(lp98
F0.0
aF129.59705255626412
aF74.0221431679867
aF2903.035288872543
aF0.0
aF4962.3465101523625
aF5874.859587726349
aF0.0
aF6143.510029510051
aF0.0
aF0.0
aF7050.968788692089
aF5949.85222452374
aF5950.015117075866
aa(lp99
F0.0
aF0.0
aF0.0
aF3436.8669470075233
aF0.0
aF5874.859587726349
aF0.0
aF5725.791959538051
aF0.0
aF356.58026931975434
aF5728.304591607074
aF0.0
aF7043.955176303276
aF7044.148022745915
aa(lp100
F4900.812253387688
aF126.30868030561207
aF0.0
aF0.0
aF3191.2876160502396
aF4836.432824306609
aF5725.791959538051
aF4713.714049628552
aF5987.625713438335
aF0.0
aF4715.782554591533
aF0.0
aF5798.881746687372
aF5799.040506033242
aa(lp101
F6225.288415072645
aF0.0
aF0.0
aF3594.0308434169538
aF4053.753704119047
aF6143.510029510051
aF0.0
aF5987.625713438335
aF0.0
aF372.8862670127439
aF0.0
aF8729.27704312252
aF7366.066988808882
aF7366.268653893268
aa(lp102
F305.2037107788182
aF0.0
aF4.49284537822993
aF176.20252700397657
aF0.0
aF301.19440790462943
aF356.58026931975434
aF293.55195529117077
aF0.0
aF18.281285107241512
aF293.6807738130454
aF0.0
aF361.1320197449184
aF0.0
aa(lp103
F4902.962862092848
aF0.0
aF72.1755773492242
aF0.0
aF3192.6880391990767
aF4838.555181580486
aF5728.304591607074
aF4715.782554591533
aF0.0
aF0.0
aF4717.851967270327
aF0.0
aF5801.4264525279195
aF0.0
aa(lp104
F7144.826671469481
aF184.1436850109546
aF105.17762515813239
aF0.0
aF0.0
aF0.0
aF8347.553220287935
aF6872.058777641625
aF8729.27704312252
aF427.96535169788655
aF0.0
aF10018.679823627132
aF8454.109814100628
aF0.0
aa(lp105
F6029.052764104592
aF0.0
aF88.75253114449235
aF3480.7385852703956
aF3925.969906172285
aF0.0
aF7043.955176303276
aF5798.881746687372
aF7366.066988808882
aF0.0
aF5801.4264525279195
aF0.0
aF7133.871329066693
aF7134.06663719595
aa(lp106
F6029.2178249757835
aF0.0
aF88.75496097396712
aF0.0
aF0.0
aF5950.015117075866
aF7044.148022745915
aF0.0
aF7366.268653893268
aF361.141906665489
aF5801.5852815416765
aF8454.34126716393
aF7134.06663719595
aF7134.26195067227
aaa(lp107
(lp108
F5153.874825928531
aF132.83086436811766
aF0.0
aF2975.4742033556327
aF3356.0756985312923
aF0.0
aF6021.453896416527
aF4957.115457792342
aF6296.807924082498
aF0.0
aF0.0
aF7226.910337547792
aF6098.317810915797
aF0.0
aa(lp109
F0.0
aF0.0
aF0.0
aF76.68692463161612
aF86.49617054687226
aF131.08593418711462
aF155.19098791260956
aF0.0
aF0.0
aF7.956387215470963
aF127.81584776390547
aF186.25922810890356
aF0.0
aF157.1763052929966
aa(lp110
F75.86920431786452
aF1.9553777165411925
aF1.1168560274043589
aF0.0
aF0.0
aF74.87254992543325
aF0.0
aF72.97274734000436
aF92.69410357798007
aF4.544461636639773
aF73.00476975130168
aF0.0
aF89.7721686339727
aF89.77462637865388
aa(lp111
F2975.4742033556327
aF76.68692463161612
aF43.801385928353945
aF1717.8233918864692
aF0.0
aF2936.386941784839
aF3476.3515491967223
aF2861.8795888313434
aF0.0
aF178.2268377470914
aF2863.1354588460763
aF4172.294827797548
aF3520.727208770546
aF3520.823597759505
aa(lp112
F3356.0756985312923
aF86.49617054687226
aF49.40414765161031
aF1937.5551410854287
aF2185.393412662695
aF0.0
aF0.0
aF3227.9508689296604
aF4100.325437866114
aF201.02434708206482
aF0.0
aF4705.98510411806
aF0.0
aF3971.1823083293284
aa(lp113
F0.0
aF131.08593418711462
aF74.87254992543325
aF2936.386941784839
aF0.0
aF5019.356653663715
aF5942.35317921983
aF0.0
aF6214.090023819043
aF0.0
aF0.0
aF7131.974164216553
aF6018.207372334857
aF6018.372136285474
aa(lp114
F0.0
aF0.0
aF0.0
aF3476.3515491967223
aF0.0
aF5942.35317921983
aF0.0
aF5791.572980807239
aF0.0
aF360.6768579569336
aF5794.114479364032
aF0.0
aF7124.879975622915
aF7125.075037590678
aa(lp115
F4957.115457792342
aF127.75978332234426
aF0.0
aF0.0
aF3227.9508689296604
aF4891.996402713042
aF5791.572980807239
aF4767.867767812281
aF6056.414823694343
aF0.0
aF4769.960036888581
aF0.0
aF5865.502463299494
aF5865.663046559327
aa(lp116
F6296.807924082498
aF0.0
aF0.0
aF3635.3210301760278
aF4100.325437866114
aF6214.090023819043
aF0.0
aF6056.414823694343
aF0.0
aF377.170187845825
aF0.0
aF8829.563739337835
aF7450.692384332368
aF7450.896366255245
aa(lp117
F308.710057487195
aF0.0
aF4.544461636639773
aF178.2268377470914
aF0.0
aF304.6546935546399
aF360.6768579569336
aF296.92444027684223
aF0.0
aF18.49131048241504
aF297.0547387361625
aF0.0
aF365.28090137381747
aF0.0
aa(lp118
F4959.290773863396
aF0.0
aF73.00476975130168
aF0.0
aF3229.3673809035176
aF4894.143142784959
aF5794.114479364032
aF4769.960036888581
aF0.0
aF0.0
aF4772.053224109029
aF0.0
aF5868.076404108794
aF0.0
aa(lp119
F7226.910337547792
aF186.25922810890356
aF106.38596308700957
aF0.0
aF0.0
aF0.0
aF8443.45446500828
aF6951.008737369401
aF8829.563739337835
aF432.8820510997254
aF0.0
aF10133.779882313227
aF8551.235239093936
aF0.0
aa(lp120
F6098.317810915797
aF0.0
aF89.7721686339727
aF3520.727208770546
aF3971.073589946529
aF0.0
aF7124.879975622915
aF5865.502463299494
aF7450.692384332368
aF0.0
aF5868.076404108794
aF0.0
aF7215.829134195688
aF7216.026686131268
aa(lp121
F6098.484768096312
aF0.0
aF89.77462637865388
aF0.0
aF0.0
aF6018.372136285474
aF7125.075037590678
aF0.0
aF7450.896366255245
aF365.29090188072456
aF5868.237057836897
aF8551.469351216281
aF7216.026686131268
aF7216.2242434753425
aaa(lp122
(lp123
F5095.336817227502
aF131.3221637192335
aF0.0
aF2941.6785950631206
aF3317.957196418362
aF0.0
aF5953.061874396906
aF4900.812253387688
aF6225.288415072645
aF0.0
aF0.0
aF7144.826671469481
aF6029.052764104592
aF0.0
aa(lp124
F0.0
aF0.0
aF0.0
aF75.81591010119784
aF85.51374203335743
aF129.59705255626412
aF153.42831968577443
aF0.0
aF0.0
aF7.866018108773831
aF126.36410796399969
aF184.1436850109546
aF0.0
aF155.39108771639792
aa(lp125
F75.00747750211882
aF1.9331684232132225
aF1.1041707119750663
aF0.0
aF0.0
aF74.0221431679867
aF0.0
aF72.14391865032862
aF91.64127858221501
aF4.49284537822993
aF72.1755773492242
aF0.0
aF88.75253114449235
aF88.75496097396712
aa(lp126
F2941.6785950631206
aF75.81591010119784
aF43.303887250719846
aF1698.3122543331888
aF0.0
aF2903.035288872543
aF3436.8669470075233
aF2829.3741947481403
aF0.0
aF176.20252700397657
aF2830.615800518526
aF4124.90566155235
aF3480.7385852703956
aF3480.8338794676365
aa(lp127
F3317.957196418362
aF85.51374203335743
aF48.843012481903145
aF1915.5482776014774
aF2160.57158773943
aF0.0
aF0.0
aF3191.2876160502396
aF4053.753704119047
aF198.74110090786453
aF0.0
aF4652.534252811802
aF0.0
aF3926.0773897253976
aa(lp128
F0.0
aF129.59705255626412
aF74.0221431679867
aF2903.035288872543
aF0.0
aF4962.3465101523625
aF5874.859587726349
aF0.0
aF6143.510029510051
aF0.0
aF0.0
aF7050.968788692089
aF5949.85222452374
aF5950.015117075866
aa(lp129
F0.0
aF0.0
aF0.0
aF3436.8669470075233
aF0.0
aF5874.859587726349
aF0.0
aF5725.791959538051
aF0.0
aF356.58026931975434
aF5728.304591607074
aF0.0
aF7043.955176303276
aF7044.148022745915
aa(lp130
F4900.812253387688
aF126.30868030561207
aF0.0
aF0.0
aF3191.2876160502396
aF4836.432824306609
aF5725.791959538051
aF4713.714049628552
aF5987.625713438335
aF0.0
aF4715.782554591533
aF0.0
aF5798.881746687372
aF5799.040506033242
aa(lp131
F6225.288415072645
aF0.0
aF0.0
aF3594.0308434169538
aF4053.753704119047
aF6143.510029510051
aF0.0
aF5987.625713438335
aF0.0
aF372.8862670127439
aF0.0
aF8729.27704312252
aF7366.066988808882
aF7366.268653893268
aa(lp132
F305.2037107788182
aF0.0
aF4.49284537822993
aF176.20252700397657
aF0.0
aF301.19440790462943
aF356.58026931975434
aF293.55195529117077
aF0.0
aF18.281285107241512
aF293.6807738130454
aF0.0
aF361.1320197449184
aF0.0
aa(lp133
F4902.962862092848
aF0.0
aF72.1755773492242
aF0.0
aF3192.6880391990767
aF4838.555181580486
aF5728.304591607074
aF4715.782554591533
aF0.0
aF0.0
aF4717.851967270327
aF0.0
aF5801.4264525279195
aF0.0
aa(lp134
F7144.826671469481
aF184.1436850109546
aF105.17762515813239
aF0.0
aF0.0
aF0.0
aF8347.553220287935
aF6872.058777641625
aF8729.27704312252
aF427.96535169788655
aF0.0
aF10018.679823627132
aF8454.109814100628
aF0.0
aa(lp135
F6029.052764104592
aF0.0
aF88.75253114449235
aF3480.7385852703956
aF3925.969906172285
aF0.0
aF7043.955176303276
aF5798.881746687372
aF7366.066988808882
aF0.0
aF5801.4264525279195
aF0.0
aF7133.871329066693
aF7134.06663719595
aa(lp136
F6029.2178249757835
aF0.0
aF88.75496097396712
aF0.0
aF0.0
aF5950.015117075866
aF7044.148022745915
aF0.0
aF7366.268653893268
aF361.141906665489
aF5801.5852815416765
aF8454.34126716393
aF7134.06663719595
aF7134.26195067227
aaa(lp137
(lp138
F4923.712059678758
aF126.8988772285568
aF0.0
aF2842.5948850408363
aF3206.1994030047636
aF0.0
aF5752.546611615519
aF4735.739610508459
aF6015.603824390532
aF0.0
aF0.0
aF6904.169539428115
aF5825.977922145261
aF0.0
aa(lp139
F0.0
aF0.0
aF0.0
aF73.26222471077148
aF82.6334073724691
aF125.23187248636185
aF148.2604379319809
aF0.0
aF0.0
aF7.601069293961838
aF122.10782223253251
aF177.94122648313274
aF0.0
aF150.1570946142356
aa(lp140
F72.48102231330391
aF1.8680540698670216
aF1.0669792489702206
aF0.0
aF0.0
aF71.52887671080346
aF0.0
aF69.7139158867986
aF88.55455187850565
aF4.341514165711132
aF69.74450823488812
aF0.0
aF85.76310528592877
aF85.76545327215953
aa(lp141
F2842.5948850408363
aF73.26222471077148
aF41.845294930542885
aF1641.108493453924
aF0.0
aF2805.2531901654156
aF3321.1039508277318
aF2734.0732013875986
aF0.0
aF170.26754820644376
aF2735.2729865096235
aF3985.9676561820647
aF3363.497873377155
aF3363.5899578074886
aa(lp142
F3206.1994030047636
aF82.6334073724691
aF47.19784740727749
aF1851.0274185279936
aF2087.797679318151
aF0.0
aF0.0
aF3083.79639750682
aF3917.2122895692787
aF192.04696183879267
aF0.0
aF4495.824286077839
aF0.0
aF3793.8364595770613
aa(lp143
F0.0
aF125.23187248636185
aF71.52887671080346
aF2805.2531901654156
aF0.0
aF4795.201226684887
aF5676.978389967752
aF0.0
aF5936.579956556276
aF0.0
aF0.0
aF6813.473044592977
aF5749.445071451498
aF5749.6024773408635
aa(lp144
F0.0
aF0.0
aF0.0
aF3321.1039508277318
aF0.0
aF5676.978389967752
aF0.0
aF5532.931763621705
aF0.0
aF344.5696791539077
aF5535.359763430854
aF0.0
aF6806.695669683441
aF6806.882020535083
aa(lp145
F4735.739610508459
aF122.0542615279447
aF0.0
aF0.0
aF3083.79639750682
aF4673.528655132556
aF5532.931763621705
aF4554.943381478335
aF5785.94624685488
aF0.0
aF4556.942213586411
aF0.0
aF5603.559688592184
aF5603.713100492886
aa(lp146
F6015.603824390532
aF0.0
aF0.0
aF3472.974141132104
aF3917.2122895692787
aF5936.579956556276
aF0.0
aF5785.94624685488
aF0.0
aF360.3264466387611
aF0.0
aF8435.251327092052
aF7117.957883093273
aF7118.152755550898
aa(lp147
F294.9236223873518
aF0.0
aF4.341514165711132
aF170.26754820644376
aF0.0
aF291.0493637032538
aF344.5696791539077
aF283.6643296126351
aF0.0
aF17.665521863955664
aF283.78880917746375
aF0.0
aF348.9681142848797
aF0.0
aa(lp148
F4737.817780882094
aF0.0
aF69.74450823488812
aF0.0
aF3085.1496506074336
aF4675.579525659701
aF5535.359763430854
aF4556.942213586411
aF0.0
aF0.0
aF4558.94192283597
aF0.0
aF5606.018681841281
aF0.0
aa(lp149
F6904.169539428115
aF177.94122648313274
aF101.634957604481
aF0.0
aF0.0
aF0.0
aF8066.3849974702935
aF6640.589207742767
aF8435.251327092052
aF413.5503184313755
aF0.0
aF9681.223526356463
aF8169.3524763266405
aF0.0
aa(lp150
F5825.977922145261
aF0.0
aF85.76310528592877
aF3363.497873377155
aF3793.732596361407
aF0.0
aF6806.695669683441
aF5603.559688592184
aF7117.957883093273
aF0.0
aF5606.018681841281
aF0.0
aF6893.583202657572
aF6893.771932279552
aa(lp151
F5826.137423318827
aF0.0
aF85.76545327215953
aF0.0
aF0.0
aF5749.6024773408635
aF6806.882020535083
aF0.0
aF7118.152755550898
aF348.9776681871618
aF5606.172161063267
aF8169.576133423298
aF6893.771932279552
aF6893.960667068492
aaa(lp152
(lp153
F4650.696496885922
aF119.86244456060062
aF0.0
aF2684.9754643832243
aF3028.4184272231473
aF0.0
aF5433.57289186378
aF4473.1469569714345
aF5682.043810370973
aF0.0
aF0.0
aF6521.339327267596
aF5502.932499920285
aF0.0
aa(lp154
F0.0
aF0.0
aF0.0
aF69.1998978995299
aF78.05145661136868
aF118.2878737853705
aF140.0395252524216
aF0.0
aF0.0
aF7.179596594915799
aF115.33704940825864
aF168.07453982406162
aF0.0
aF141.83101396683938
aa(lp155
F68.4620124973729
aF1.7644720920765764
aF1.0078161751318029
aF0.0
aF0.0
aF67.56266254262289
aF0.0
aF65.84833972197947
aF83.64427879065269
aF4.100780971129882
aF65.87723575090376
aF0.0
aF81.00761549028326
aF81.0098332827142
aa(lp156
F2684.9754643832243
aF69.1998978995299
aF39.52500962400533
aF1550.1104510189123
aF0.0
aF2649.7043340977884
aF3136.951617539602
aF2582.4712139548997
aF0.0
aF160.82636035152854
aF2583.6044720326236
aF3764.949207146767
aF3176.9948338569106
aF3177.081812285458
aa(lp157
F3028.4184272231473
aF78.05145661136868
aF44.58076770880524
aF1748.389553785074
aF1972.0311089931974
aF0.0
aF0.0
aF2912.8025622054975
aF3700.0062659730193
aF181.39812438981863
aF0.0
aF4246.534729173627
aF0.0
aF3583.4715187354577
aa(lp158
F0.0
aF118.2878737853705
aF67.56266254262289
aF2649.7043340977884
aF0.0
aF4529.311478108954
aF5362.194862557147
aF0.0
aF5607.401747461403
aF0.0
aF0.0
aF6435.671874399297
aF5430.643329411521
aF5430.792007280858
aa(lp159
F0.0
aF0.0
aF0.0
aF3136.951617539602
aF0.0
aF5362.194862557147
aF0.0
aF5226.135496693355
aF0.0
aF325.4635893307574
aF5228.428866019178
aF0.0
aF6429.270299049678
aF6429.44631690824
aa(lp160
F4473.1469569714345
aF115.28645859828072
aF0.0
aF0.0
aF2912.8025622054975
aF4414.385545108224
aF5226.135496693355
aF4302.375722015132
aF5465.120546300562
aF0.0
aF4304.263720616637
aF0.0
aF5292.847164488153
aF5292.992069832033
aa(lp161
F5682.043810370973
aF0.0
aF0.0
aF3280.40073752653
aF3700.0062659730193
aF5607.401747461403
aF0.0
aF5465.120546300562
aF0.0
aF340.346657726279
aF0.0
aF7967.523957893434
aF6723.273292720374
aF6723.45735966926
aa(lp162
F278.57036334802484
aF0.0
aF4.100780971129882
aF160.82636035152854
aF0.0
aF274.91092894735846
aF325.4635893307574
aF267.93538859115324
aF0.0
aF16.68598399999055
aF268.0529658720879
aF0.0
aF329.6181350489986
aF0.0
aa(lp163
F4475.109894600493
aF0.0
aF65.87723575090376
aF0.0
aF2914.080778595518
aF4416.322696643601
aF5228.428866019178
aF4304.263720616637
aF0.0
aF0.0
aF4306.152547722892
aF0.0
aF5295.169808694563
aF0.0
aa(lp164
F6521.339327267596
aF168.07453982406162
aF95.99938736530179
aF0.0
aF0.0
aF0.0
aF7619.110946287917
aF6272.374296339884
aF7967.523957893434
aF390.6193119953361
aF0.0
aF9144.408079487317
aF7716.368967757521
aF0.0
aa(lp165
F5502.932499920285
aF0.0
aF81.00761549028326
aF3176.9948338569106
aF3583.373414645019
aF0.0
aF6429.270299049678
aF5292.847164488153
aF6723.273292720374
aF0.0
aF5295.169808694563
aF0.0
aF6511.339993688201
aF6511.518258416349
aa(lp166
F5503.083156892132
aF0.0
aF81.0098332827142
aF0.0
aF0.0
aF5430.792007280858
aF6429.44631690824
aF0.0
aF6723.45735966926
aF329.62715919568643
aF5295.31477762682
aF7716.5802232621745
aF6511.518258416349
aF6511.696528024954
aaa(lp167
(lp168
F4294.895688273777
aF110.6923869734314
aF0.0
aF2479.5618361296943
aF2796.7297487760775
aF0.0
aF5017.878247013773
aF4130.929548160285
aF5247.339936735416
aF0.0
aF0.0
aF6022.425281289827
aF5081.931509096498
aF0.0
aa(lp169
F0.0
aF0.0
aF0.0
aF63.90577052634678
aF72.08014212239357
aF109.2382784892622
aF129.32582326050797
aF0.0
aF0.0
aF6.630322679559137
aF106.51320646992124
aF155.21602342408633
aF0.0
aF130.98025441083053
aa(lp170
F63.224336931553765
aF1.629481430450994
aF0.9307133561702992
aF0.0
aF0.0
aF62.39379160452771
aF0.0
aF60.810622783336974
aF77.24508631498341
aF3.787051363866478
aF60.837308126084736
aF0.0
aF74.8101405283106
aF74.81218864887823
aa(lp171
F2479.5618361296943
aF63.90577052634678
aF36.50115494029496
aF1431.5194932387246
aF0.0
aF2446.989118154033
aF2896.9596243306023
aF2384.899657359453
aF0.0
aF148.52236478924286
aF2385.946215705064
aF3476.9123564979573
aF2933.9393406421223
aF2934.019664799588
aa(lp172
F2796.7297487760775
aF72.08014212239357
aF41.1701230430086
aF1614.6292842378575
aF1821.1611772189126
aF0.0
aF0.0
aF2689.959057441384
aF3416.937864888429
aF167.52028923505404
aF0.0
aF3921.6542534317173
aF0.0
aF3309.318590274441
aa(lp173
F0.0
aF109.2382784892622
aF62.39379160452771
aF2446.989118154033
aF0.0
aF4182.797211386431
aF4951.960982683192
aF0.0
aF5178.408353182537
aF0.0
aF0.0
aF5943.311803513795
aF5015.172810279048
aF5015.310113571229
aa(lp174
F0.0
aF0.0
aF0.0
aF2896.9596243306023
aF0.0
aF4951.960982683192
aF0.0
aF4826.310817339367
aF0.0
aF300.5640482974447
aF4828.428732803361
aF0.0
aF5937.399979685762
aF5937.562531325566
aa(lp175
F4130.929548160285
aF106.46648610195356
aF0.0
aF0.0
aF2689.959057441384
aF4076.663668927535
aF4826.310817339367
aF3973.223139843569
aF5047.0123530786195
aF0.0
aF3974.966697407151
aF0.0
aF4887.918719416245
aF4888.05253879944
aa(lp176
F5247.339936735416
aF0.0
aF0.0
aF3029.434191813357
aF3416.937864888429
aF5178.408353182537
aF0.0
aF5047.0123530786195
aF0.0
aF314.3084898715209
aF0.0
aF7357.96978278153
aF6208.910320276975
aF6209.080305212705
aa(lp177
F257.2583812393292
aF0.0
aF3.787051363866478
aF148.52236478924286
aF0.0
aF253.8789112955333
aF300.5640482974447
aF247.43703356403523
aF0.0
aF15.409425402012538
aF247.5456156134688
aF0.0
aF304.40075114484796
aF0.0
aa(lp178
F4132.74231155283
aF0.0
aF60.837308126084736
aF0.0
aF2691.1394840862654
aF4078.4526189874664
aF4828.428732803361
aF3974.966697407151
aF0.0
aF0.0
aF3976.7110200908573
aF0.0
aF4890.0636700906625
aF0.0
aa(lp179
F6022.425281289827
aF155.21602342408633
aF88.65496923917465
aF0.0
aF0.0
aF0.0
aF7036.2120541735685
aF5792.507281141169
aF7357.96978278153
aF360.73504258310453
aF0.0
aF8444.816568594357
aF7126.029365911615
aF0.0
aa(lp180
F5081.931509096498
aF0.0
aF74.8101405283106
aF2933.9393406421223
aF3309.2279916221078
aF0.0
aF5937.399979685762
aF4887.918719416245
aF6208.910320276975
aF0.0
aF4890.0636700906625
aF0.0
aF6013.1909451630745
aF6013.355571776058
aa(lp181
F5082.070640080261
aF0.0
aF74.81218864887823
aF0.0
aF0.0
aF5015.310113571229
aF5937.562531325566
aF0.0
aF6209.080305212705
aF304.40908490060383
aF4890.197548197415
aF7126.224459346902
aF6013.355571776058
aF6013.520202896119
aaa(lp182
(lp183
F3880.5568709606023
aF100.013628737378
aF0.0
aF2240.3525995836517
aF2526.922568216077
aF0.0
aF4533.791580144145
aF3732.4089349444807
aF4741.116554090006
aF0.0
aF0.0
aF5441.427569233747
aF4591.665471461505
aF0.0
aa(lp184
F0.0
aF0.0
aF0.0
aF57.740628622745376
aF65.12639911990361
aF98.69980156230339
aF116.84945304175919
aF0.0
aF0.0
aF5.990679657505342
aF96.23762373167804
aF140.24196392616204
aF0.0
aF118.34427727822296
aa(lp185
F57.12493454998892
aF1.4722814754974414
aF0.8409252217795029
aF0.0
aF0.0
aF56.37451390898598
aF0.0
aF54.944077155018725
aF69.79306884354905
aF3.4217054981932304
aF54.96818809918822
aF0.0
aF67.59302807685756
aF67.59487861035551
aa(lp186
F2240.3525995836517
aF57.740628622745376
aF32.979801578950486
aF1293.417397905256
aF0.0
aF2210.9222492979807
aF2617.483028932403
aF2154.8227066808035
aF0.0
aF134.1940584838423
aF2155.768301049954
aF3141.486339603948
aF2650.895223927183
aF2650.9677990218493
aa(lp187
F2526.922568216077
aF65.12639911990361
aF37.198343207504784
aF1458.8621512066895
aF1645.4694205213627
aF0.0
aF0.0
aF2430.4522997978493
aF3087.297730056771
aF151.35920790608915
aF0.0
aF3543.322926383548
aF0.0
aF2990.060743209493
aa(lp188
F0.0
aF98.69980156230339
aF56.37451390898598
aF2210.9222492979807
aF0.0
aF3779.2728011525533
aF4474.233511315755
aF0.0
aF4678.834964594678
aF0.0
aF0.0
aF5369.946357103828
aF4531.347143335457
aF4531.471200651991
aa(lp189
F0.0
aF0.0
aF0.0
aF2617.483028932403
aF0.0
aF4474.233511315755
aF0.0
aF4360.70511671619
aF0.0
aF271.56791862695275
aF4362.618711830584
aF0.0
aF5364.604861002208
aF5364.751730898128
aa(lp190
F3732.4089349444807
aF96.19541058889422
aF0.0
aF0.0
aF2430.4522997978493
aF3683.3782143404133
aF4360.70511671619
aF3589.9168394882754
aF4560.115049600669
aF0.0
aF3591.4921919006165
aF0.0
aF4416.369557732216
aF4416.490467240761
aa(lp191
F4741.116554090006
aF0.0
aF0.0
aF2737.177459341109
aF3087.297730056771
aF4678.834964594678
aF0.0
aF4560.115049600669
aF0.0
aF283.98640118368166
aF0.0
aF6648.128911454311
aF5609.921952310088
aF5610.075538394171
aa(lp192
F232.44005242225674
aF0.0
aF3.4217054981932304
aF134.1940584838423
aF0.0
aF229.38660799369762
aF271.56791862695275
aF223.56619355124576
aF0.0
aF13.922841428860993
aF223.6643004317325
aF0.0
aF275.0344856117982
aF0.0
aa(lp193
F3734.0468167346194
aF0.0
aF54.96818809918822
aF0.0
aF2431.5188478725713
aF3684.9945801268573
aF4362.618711830584
aF3591.4921919006165
aF0.0
aF0.0
aF3593.0682356201205
aF0.0
aF4418.307579905887
aF0.0
aa(lp194
F5441.427569233747
aF140.24196392616204
aF80.10221318417034
aF0.0
aF0.0
aF0.0
aF6357.4119173388735
aF5233.690306214678
aF6648.128911454311
aF325.9340737690341
aF0.0
aF7630.1249990153
aF6438.564339072398
aF0.0
aa(lp195
F4591.665471461505
aF0.0
aF67.59302807685756
aF2650.895223927183
aF2989.9788848249527
aF0.0
aF5364.604861002208
aF4416.369557732216
aF5609.921952310088
aF0.0
aF4418.307579905887
aF0.0
aF5433.084091508952
aF5433.232836200447
aa(lp196
F4591.79118014786
aF0.0
aF67.59487861035551
aF0.0
aF0.0
aF4531.471200651991
aF5364.751730898128
aF0.0
aF5610.075538394171
aF275.04201539028566
aF4418.428542472789
aF6438.740611379279
aF5433.232836200447
aF5433.3815849642115
aaa(lp197
(lp198
F3435.916550619021
aF88.5539095787451
aF0.0
aF1983.6494689037552
aF2237.3837990208617
aF0.0
aF4014.302597611018
aF3304.7436385282276
aF4197.871949388332
aF0.0
aF0.0
aF4817.940225031861
aF4065.545207277198
aF0.0
aa(lp199
F0.0
aF0.0
aF0.0
aF51.12461642107741
aF57.66411369791485
aF87.39062279140975
aF103.46065860840636
aF0.0
aF0.0
aF5.304258143647309
aF85.21056517593698
aF124.17281873926903
aF0.0
aF104.78420352866439
aa(lp200
F50.57946954524301
aF1.3035851443607949
aF0.7445706849362392
aF0.0
aF0.0
aF49.915033283622165
aF0.0
aF48.648498226669574
aF61.79606905198672
aF3.0296410910931817
aF48.669846500867784
aF0.0
aF59.84811242264847
aF59.84975091910258
aa(lp201
F1983.6494689037552
aF51.12461642107741
aF29.200923952235964
aF1145.2155945909794
aF0.0
aF1957.591294523226
aF2317.5676994644814
aF1907.9197258875624
aF0.0
aF118.81789183139426
aF1908.7569725640508
aF2781.5298851983657
aF2347.1514725136976
aF2347.21573183967
aa(lp202
F2237.3837990208617
aF57.66411369791485
aF32.93609843440687
aF1291.703427390286
aF1456.92894177513
aF0.0
aF0.0
aF2151.967245953107
aF2733.550291910743
aF134.01623138804322
aF0.0
aF3137.323402745373
aF0.0
aF2647.4548722195523
aa(lp203
F0.0
aF87.39062279140975
aF49.915033283622165
aF1957.591294523226
aF0.0
aF3346.2377691091438
aF3961.568786146553
aF0.0
aF4142.726682546029
aF0.0
aF0.0
aF4754.649442811035
aF4012.1382482232375
aF4012.2480908569823
aa(lp204
F0.0
aF0.0
aF0.0
aF2317.5676994644814
aF0.0
aF3961.568786146553
aF0.0
aF3861.0486538714927
aF0.0
aF240.45123863795573
aF3862.7429862426884
aF0.0
aF4749.919983748609
aF4750.050025060452
aa(lp205
F3304.7436385282276
aF85.17318888156284
aF0.0
aF0.0
aF2151.967245953107
aF3261.3309351420276
aF3861.0486538714927
aF3178.5785118748545
aF4037.6098824628953
aF0.0
aF3179.9733579257204
aF0.0
aF3910.334975532996
aF3910.4420310395517
aa(lp206
F4197.871949388332
aF0.0
aF0.0
aF2423.547353450685
aF2733.550291910743
aF4142.726682546029
aF0.0
aF4037.6098824628953
aF0.0
aF251.44679189721668
aF0.0
aF5886.375826225223
aF4967.128256221579
aF4967.264244170163
aa(lp207
F205.80670499146333
aF0.0
aF3.0296410910931817
aF118.81789183139426
aF0.0
aF203.10312903642662
aF240.45123863795573
aF197.94962685122815
aF0.0
aF12.327540321610028
aF198.036492490775
aF0.0
aF243.52060091587833
aF0.0
aa(lp208
F3306.1938492422637
aF0.0
aF48.669846500867784
aF0.0
aF2152.9115872690118
aF3262.7620951899726
aF3862.7429862426884
aF3179.9733579257204
aF0.0
aF0.0
aF3181.3688160726856
aF0.0
aF3912.050936072529
aF0.0
aa(lp209
F4817.940225031861
aF124.17281873926903
aF70.92397539133971
aF0.0
aF0.0
aF0.0
aF5628.9696433388535
aF4634.005824912934
aF5886.375826225223
aF288.5880340664836
aF0.0
aF6755.853254875485
aF5700.8234927292915
aF0.0
aa(lp210
F4065.545207277198
aF0.0
aF59.84811242264847
aF2347.1514725136976
aF2647.3823932976857
aF0.0
aF4749.919983748609
aF3910.334975532996
aF4967.128256221579
aF0.0
aF3912.050936072529
aF0.0
aF4810.552756130459
aF4810.684457420845
aa(lp211
F4065.656512064208
aF0.0
aF59.84975091910258
aF0.0
aF0.0
aF4012.2480908569823
aF4750.050025060452
aF0.0
aF4967.264244170163
aF243.52726792048304
aF3912.1580385579314
aF5700.979567477521
aF4810.684457420845
aF4810.816162316895
aaa(lp212
(lp213
F3658.2367107898112
aF94.28376915806155
aF0.0
aF2112.001034243703
aF2382.153183618469
aF0.0
aF4274.047088877581
aF3518.5762867363537
aF4469.494251739168
aF0.0
aF0.0
aF5129.683897132803
aF4328.605339369352
aF0.0
aa(lp214
F0.0
aF0.0
aF0.0
aF54.43262252191139
aF61.39525640890922
aF93.04521217685657
aF110.15505582508277
aF0.0
aF0.0
aF5.6474689005763254
aF90.72409445380751
aF132.20739133271553
aF0.0
aF111.56424040344366
aa(lp215
F53.85220204761596
aF1.387933309929118
aF0.792747953357871
aF0.0
aF0.0
aF53.14477359630407
aF0.0
aF51.796287690844146
aF65.79456894776787
aF3.225673294643206
aF51.819017300027994
aF0.0
aF63.72057024975301
aF63.72231476472904
aa(lp216
F2112.001034243703
aF54.43262252191139
aF31.090362765593223
aF1219.3164962481176
aF0.0
aF2084.256771910603
aF2467.5253641984423
aF2031.3712162841828
aF0.0
aF126.50597515761827
aF2032.262636807002
aF2961.5081124011567
aF2499.02334822044
aF2499.0917654307596
aa(lp217
F2382.153183618469
aF61.39525640890922
aF35.067220820955825
aF1375.2827892984876
aF1551.1991811482462
aF0.0
aF0.0
aF2291.209772875478
aF2910.4240109837565
aF142.68771964706616
aF0.0
aF3340.3231645644605
aF0.0
aF2818.757807714522
aa(lp218
F0.0
aF93.04521217685657
aF53.14477359630407
aF2084.256771910603
aF0.0
aF3562.7552851308483
aF4217.901148731154
aF0.0
aF4410.780823570353
aF0.0
aF0.0
aF5062.297899957432
aF4271.742695779347
aF4271.859645754486
aa(lp219
F0.0
aF0.0
aF0.0
aF2467.5253641984423
aF0.0
aF4217.901148731154
aF0.0
aF4110.876885293841
aF0.0
aF256.00957863245424
aF4112.680849036636
aF0.0
aF5057.262422375408
aF5057.400877979289
aa(lp220
F3518.5762867363537
aF90.68429973522852
aF0.0
aF0.0
aF2291.209772875478
aF3472.3545747412204
aF4110.876885293841
aF3384.2476756815645
aF4298.862466031782
aF0.0
aF3385.732774913168
aF0.0
aF4163.352266632605
aF4163.466249140156
aa(lp221
F4469.494251739168
aF0.0
aF0.0
aF2580.362406395897
aF2910.4240109837565
aF4410.780823570353
aF0.0
aF4298.862466031782
aF0.0
aF267.71659654044913
aF0.0
aF6267.252368839766
aF5288.525104265834
aF5288.669891282167
aa(lp222
F219.12337870686002
aF0.0
aF3.225673294643206
aF126.50597515761827
aF0.0
aF216.2448685150621
aF256.00957863245424
aF210.75791020123694
aF0.0
aF13.125190875235509
aF210.85039646125372
aF0.0
aF259.27754326383825
aF0.0
aa(lp223
F3520.120332988441
aF0.0
aF51.819017300027994
aF0.0
aF2292.215217570791
aF3473.8783376584147
aF4112.680849036636
aF3385.732774913168
aF0.0
aF0.0
aF3387.218525846403
aF0.0
aF4165.179257989208
aF0.0
aa(lp224
F5129.683897132803
aF132.20739133271553
aF75.51309428775501
aF0.0
aF0.0
aF0.0
aF5993.190780338863
aF4933.848065563806
aF6267.252368839766
aF307.26105391775883
aF0.0
aF7192.989126945392
aF6069.693915900844
aF0.0
aa(lp225
F4328.605339369352
aF0.0
aF63.72057024975301
aF2499.02334822044
aF2818.680639061319
aF0.0
aF5057.262422375408
aF4163.352266632605
aF5288.525104265834
aF0.0
aF4165.179257989208
aF0.0
aF5121.818423819705
aF5121.958646810646
aa(lp226
F4328.723846106033
aF0.0
aF63.72231476472904
aF0.0
aF0.0
aF4271.859645754486
aF5057.400877979289
aF0.0
aF5288.669891282167
aF259.2846416553843
aF4165.293290515359
aF6069.860089428399
aF5121.958646810646
aF5122.0988736405525
aaa(lp227
(lp228
F3865.4061194463984
aF99.62314827608824
aF0.0
aF2231.6056525167246
aF2517.0567738984696
aF0.0
aF4516.090422312395
aF3717.836593344256
aF4722.605943061873
aF0.0
aF0.0
aF5420.182753160843
aF4573.738358186848
aF0.0
aa(lp229
F0.0
aF0.0
aF0.0
aF57.515193473712095
aF64.8721279101542
aF98.31445064033596
aF116.39324093445715
aF0.0
aF0.0
aF5.967290411603222
aF95.8618858229291
aF139.69442108167766
aF0.0
aF117.88222896974744
aa(lp230
F56.90190323839838
aF1.4665332874058943
aF0.8376420205532691
aF0.0
aF0.0
aF56.154412444074936
aF0.0
aF54.72956050500327
aF69.52057768348506
aF3.4083462274798295
aF54.75357731347626
aF0.0
aF67.32912647547953
aF67.3309697839904
aa(lp231
F2231.6056525167246
aF57.515193473712095
aF32.85103944626546
aF1288.367543914852
aF0.0
aF2202.290206338629
aF2607.2636618975416
aF2146.4096916235076
aF0.0
aF133.67012831031855
aF2147.351594134557
aF3129.2211208481613
aF2640.5454065779095
aF2640.6176983196287
aa(lp232
F2517.0567738984696
aF64.8721279101542
aF37.05311073870773
aF1453.1663558140715
aF1639.0450594970212
aF0.0
aF0.0
aF2420.9631516972454
aF3075.2440783995858
aF150.76826031154863
aF0.0
aF3529.4888280885452
aF0.0
aF2978.3867312469965
aa(lp233
F0.0
aF98.31445064033596
aF56.154412444074936
aF2202.290206338629
aF0.0
aF3764.517490247787
aF4456.7648844148725
aF0.0
aF4660.567517864282
aF0.0
aF0.0
aF5348.980623162414
aF4513.655529251142
aF4513.7791022141055
aa(lp234
F0.0
aF0.0
aF0.0
aF2607.2636618975416
aF0.0
aF4456.7648844148725
aF0.0
aF4343.679735605429
aF0.0
aF270.5076434677002
aF4345.585859523024
aF0.0
aF5343.6599817171855
aF5343.806278193008
aa(lp235
F3717.836593344256
aF95.8198374917582
aF0.0
aF0.0
aF2420.9631516972454
aF3668.997302034781
aF4343.679735605429
aF3575.900825859211
aF4542.311117770757
aF0.0
aF3577.4700276664357
aF0.0
aF4399.12684747462
aF4399.2472849194955
aa(lp236
F4722.605943061873
aF0.0
aF0.0
aF2726.4907726320207
aF3075.2440783995858
aF4660.567517864282
aF0.0
aF4542.311117770757
aF0.0
aF282.87764088436876
aF0.0
aF6622.172804503376
aF5588.0192882492765
aF5588.172274691434
aa(lp237
F231.53254311539627
aF0.0
aF3.4083462274798295
aF133.67012831031855
aF0.0
aF228.49102016597993
aF270.5076434677002
aF222.69333020763167
aF0.0
aF13.868482861811282
aF222.7910540521219
aF0.0
aF273.9606760303631
aF0.0
aa(lp238
F3719.4680803975466
aF0.0
aF54.75357731347626
aF0.0
aF2422.0255356776383
aF3670.6073570887193
aF4345.585859523024
aF3577.4700276664357
aF0.0
aF0.0
aF3579.0399180817712
aF0.0
aF4401.057303081595
aF0.0
aa(lp239
F5420.182753160843
aF139.69442108167766
aF79.78947231525717
aF0.0
aF0.0
aF0.0
aF6332.59084875621
aF5213.256553027051
aF6622.172804503376
aF324.66153832479404
aF0.0
aF7600.33491173492
aF6413.426429320452
aF0.0
aa(lp240
F4573.738358186848
aF0.0
aF67.32912647547953
aF2640.5454065779095
aF2978.3051924598967
aF0.0
aF5343.6599817171855
aF4399.12684747462
aF5588.0192882492765
aF0.0
aF4401.057303081595
aF0.0
aF5411.871850646767
aF5412.020014598452
aa(lp241
F4573.863576072234
aF0.0
aF67.3309697839904
aF0.0
aF0.0
aF4513.7791022141055
aF5343.806278193008
aF0.0
aF5588.172274691434
aF273.96817641054344
aF4401.177793377673
aF6413.602013412211
aF5412.020014598452
aF5412.168182606507
aaa(lp242
(lp243
F4043.3065237524706
aF104.20817706967284
aF0.0
aF2334.3124666434896
aF2632.901113122004
aF0.0
aF4723.937744737398
aF3888.9452977498304
aF4939.957879879652
aF0.0
aF0.0
aF5669.639776149727
aF4784.238853598741
aF0.0
aa(lp244
F0.0
aF0.0
aF0.0
aF60.162257160303646
aF67.85778515464176
aF102.83924828839011
aF121.75009193041397
aF0.0
aF0.0
aF6.241927369281553
aF100.2738072920978
aF146.1236792816653
aF0.0
aF123.30760874775187
aa(lp245
F59.52074102130794
aF1.5340286182186855
aF0.8761934300340208
aF0.0
aF0.0
aF58.73884791312252
aF0.0
aF57.24841897432451
aF72.7201739213197
aF3.5652110311115313
aF57.273541125885764
aF0.0
aF70.42786395646586
aF70.42979210090839
aa(lp246
F2334.3124666434896
aF60.162257160303646
aF34.362966788120644
aF1347.6630228049457
aF0.0
aF2303.647814310507
aF2727.2596585020415
aF2245.1954699212306
aF0.0
aF139.82212609146137
aF2246.1807222983366
aF3273.239546172566
aF2762.0731531853035
aF2762.1487720625637
aa(lp247
F2632.901113122004
aF67.85778515464176
aF38.75843307160605
aF1520.0464905876797
aF1714.4800253841634
aF0.0
aF0.0
aF2532.384904079302
aF3216.7782789418807
aF157.7071778889309
aF0.0
aF3691.9290659595
aF0.0
aF3115.4631954775045
aa(lp248
F0.0
aF102.83924828839011
aF58.73884791312252
aF2303.647814310507
aF0.0
aF3937.7746236090484
aF4661.881824351849
aF0.0
aF4875.064215003715
aF0.0
aF0.0
aF5595.160658605165
aF4721.390788817379
aF4721.520049068919
aa(lp249
F0.0
aF0.0
aF0.0
aF2727.2596585020415
aF0.0
aF4661.881824351849
aF0.0
aF4543.592075282423
aF0.0
aF282.9574139843565
aF4545.585926130932
aF0.0
aF5589.595141399143
aF5589.748170984345
aa(lp250
F3888.9452977498304
aF100.22982373992176
aF0.0
aF0.0
aF2532.384904079302
aF3837.858240125125
aF4543.592075282423
aF3740.4771169449923
aF4751.365214381728
aF0.0
aF3742.118539271178
aF0.0
aF4601.591070010573
aF4601.717050435792
aa(lp251
F4939.957879879652
aF0.0
aF0.0
aF2851.9740454886073
aF3216.7782789418807
aF4875.064215003715
aF0.0
aF4751.365214381728
aF0.0
aF295.8967248117478
aF0.0
aF6926.949892059328
aF5845.200774470975
aF5845.360801919711
aa(lp252
F242.18853416974406
aF0.0
aF3.5652110311115313
aF139.82212609146137
aF0.0
aF239.0070289918925
aF282.9574139843565
aF232.94250772119065
aF0.0
aF14.506762160800287
aF233.04472918143142
aF0.0
aF286.56936798243845
aF0.0
aa(lp253
F3890.6518719213777
aF0.0
aF57.273541125885764
aF0.0
aF2533.4961829322647
aF3839.5423959167865
aF4545.585926130932
aF3742.118539271178
aF0.0
aF0.0
aF3743.7606818977883
aF0.0
aF4603.610372383545
aF0.0
aa(lp254
F5669.639776149727
aF146.1236792816653
aF83.46168137832073
aF0.0
aF0.0
aF0.0
aF6624.040294813384
aF5453.190060626408
aF6926.949892059328
aF339.60367303090976
aF0.0
aF7950.1306671814
aF6708.596230243405
aF0.0
aa(lp255
F4784.238853598741
aF0.0
aF70.42786395646586
aF2762.0731531853035
aF3115.3779039713518
aF0.0
aF5589.595141399143
aF4601.591070010573
aF5845.200774470975
aF0.0
aF4603.610372383545
aF0.0
aF5660.946374909329
aF5661.1013579185965
aa(lp256
F4784.36983447817
aF0.0
aF70.42979210090839
aF0.0
aF0.0
aF4721.520049068919
aF5589.748170984345
aF0.0
aF5845.360801919711
aF286.5772135580847
aF4603.736408092374
aF6708.779895369847
aF5661.1013579185965
aF5661.256345170924
aaa(lp257
(lp258
F4179.814305148889
aF107.72639340365093
aF0.0
aF2413.122176972295
aF2721.791601012812
aF0.0
aF4883.4246046132685
aF4020.2416245183426
aF5106.737886889431
aF0.0
aF0.0
aF5861.054882229987
aF4945.761564711229
aF0.0
aa(lp259
F0.0
aF0.0
aF0.0
aF62.193420565924434
aF70.14876053519195
aF106.31124763888579
aF125.86054827019362
aF0.0
aF0.0
aF6.452663718804573
aF103.65919370423472
aF151.05702261120086
aF0.0
aF127.47064907144998
aa(lp260
F61.53024592927345
aF1.5858196071139081
aF0.9057749669532298
aF0.0
aF0.0
aF60.7219549972128
aF0.0
aF59.18120705673408
aF75.17531046524617
aF3.6855776284021564
aF59.20717736787794
aF0.0
aF72.80560885428861
aF72.80760209563104
aa(lp261
F2413.122176972295
aF62.193420565924434
aF35.52310944138942
aF1393.1620440224515
aF0.0
aF2381.4222423443202
aF2819.3358251461063
aF2320.9964636375803
aF0.0
aF144.54272001891897
aF2322.0149795368366
aF3383.7487706902148
aF2855.324672945426
aF2855.402844823579
aa(lp262
F2721.791601012812
aF70.14876053519195
aF40.066972920842176
aF1571.3654229591396
aF1772.3633105466402
aF0.0
aF0.0
aF2617.881821729963
aF3325.38129074001
aF163.03159661341792
aF0.0
aF3816.5738444116055
aF0.0
aF3220.645665898306
aa(lp263
F0.0
aF106.31124763888579
aF60.7219549972128
aF2381.4222423443202
aF0.0
aF4070.7194978970147
aF4819.273588057152
aF0.0
aF5039.653319551152
aF0.0
aF0.0
aF5784.061243702005
aF4880.791659837367
aF4880.925284098922
aa(lp264
F0.0
aF0.0
aF0.0
aF2819.3358251461063
aF0.0
aF4819.273588057152
aF0.0
aF4696.990208746598
aF0.0
aF292.51045889593166
aF4699.051374836771
aF0.0
aF5778.3078267160245
aF5778.4660227977665
aa(lp265
F4020.2416245183426
aF103.61372520475376
aF0.0
aF0.0
aF2617.881821729963
aF3967.429795137291
aF4696.990208746598
aF3866.7609466765944
aF4911.778064658887
aF0.0
aF3868.457785756065
aF0.0
aF4756.947332062589
aF4757.077565766218
aa(lp266
F5106.737886889431
aF0.0
aF0.0
aF2948.260747291394
aF3325.38129074001
aF5039.653319551152
aF0.0
aF4911.778064658887
aF0.0
aF305.88661926798886
aF0.0
aF7160.8135766586365
aF6042.543069657425
aF6042.70849986053
aa(lp267
F250.36516368940752
aF0.0
aF3.6855776284021564
aF144.54272001891897
aF0.0
aF247.07624636984016
aF292.51045889593166
aF240.8069782319316
aF0.0
aF14.996531092782844
aF240.91265083411932
aF0.0
aF296.244357600379
aF0.0
aa(lp268
F4022.005815062178
aF0.0
aF59.20717736787794
aF0.0
aF2619.0306189382222
aF3969.1708104248364
aF4699.051374836771
aF3868.457785756065
aF0.0
aF0.0
aF3870.1553694543272
aF0.0
aF4759.034808956904
aF0.0
aa(lp269
F5861.054882229987
aF151.05702261120086
aF86.27946649791035
aF0.0
aF0.0
aF0.0
aF6847.677320404572
aF5637.29751632785
aF7160.8135766586365
aF351.0691762489295
aF0.0
aF8218.538390615973
aF6935.087984527965
aF0.0
aa(lp270
F4945.761564711229
aF0.0
aF72.80560885428861
aF2855.324672945426
aF3220.557494829546
aF0.0
aF5778.3078267160245
aF4756.947332062589
aF6042.543069657425
aF0.0
aF4759.034808956904
aF0.0
aF5852.067979394014
aF5852.228194850198
aa(lp271
F4945.896967691517
aF0.0
aF72.80760209563104
aF0.0
aF0.0
aF4880.925284098922
aF5778.4660227977665
aF0.0
aF6042.70849986053
aF296.2524680538224
aF4759.165099810598
aF6935.277850450409
aF5852.228194850198
aF5852.388414692692
aaa(lp272
(lp273
F4265.626683923261
aF109.9380366489893
aF0.0
aF2462.664031983438
aF2777.670497719612
aF0.0
aF4983.682236003962
aF4102.777945957958
aF5211.580182230488
aF0.0
aF0.0
aF5981.383448250671
aF5047.298985690895
aF0.0
aa(lp274
F0.0
aF0.0
aF0.0
aF63.47026326113763
aF71.58892786563614
aF108.49383767383694
aF128.4444891470904
aF0.0
aF0.0
aF6.585138126210571
aF105.78733656996833
aF154.15825187511183
aF0.0
aF130.08764562253117
aa(lp275
F62.79347352368091
aF1.6183767837870087
aF0.9243706984556528
aF0.0
aF0.0
aF61.96858822580443
aF0.0
aF60.396208438499094
aF76.71867381710086
aF3.761243234661556
aF60.42271192504599
aF0.0
aF74.30032178357041
aF74.30235594653485
aa(lp276
F2462.664031983438
aF63.47026326113763
aF36.2524056014779
aF1421.763924462084
aF0.0
aF2430.3132916978843
aF2877.2173232360024
aF2368.6469603178516
aF0.0
aF147.51020941768542
aF2369.6863865412884
aF3453.2177733753574
aF2913.9450288920466
aF2914.0248056536534
aa(lp277
F2777.670497719612
aF71.58892786563614
aF40.88955545815501
aF1603.6258524958816
aF1808.7502647572799
aF0.0
aF0.0
aF2671.6274310016734
aF3393.651998014895
aF166.37866614795388
aF0.0
aF3894.928827778587
aF0.0
aF3286.766130972475
aa(lp278
F0.0
aF108.49383767383694
aF61.96858822580443
aF2430.3132916978843
aF0.0
aF4154.292139630753
aF4918.2141869364505
aF0.0
aF5143.11835602804
aF0.0
aF0.0
aF5902.809115751562
aF4980.995236373489
aF4981.131603966424
aa(lp279
F0.0
aF0.0
aF0.0
aF2877.2173232360024
aF0.0
aF4918.2141869364505
aF0.0
aF4793.420306704772
aF0.0
aF298.51575397885506
aF4795.523788924881
aF0.0
aF5896.937580025943
aF5897.0990239031835
aa(lp280
F4102.777945957958
aF105.74093459358745
aF0.0
aF0.0
aF2671.6274310016734
aF4048.8818797243184
aF4793.420306704772
aF3946.146280751703
aF5012.617797950616
aF0.0
aF3947.8779562586265
aF0.0
aF4854.608361110184
aF4854.741268536397
aa(lp281
F5211.580182230488
aF0.0
aF0.0
aF3008.7890984338196
aF3393.651998014895
aF5143.11835602804
aF0.0
aF5012.617797950616
aF0.0
aF312.16652945498026
aF0.0
aF7307.8264346738715
aF6166.597622515231
aF6166.766449031716
aa(lp282
F255.50520788514078
aF0.0
aF3.761243234661556
aF147.51020941768542
aF0.0
aF252.148768470528
aF298.51575397885506
aF245.75079107119947
aF0.0
aF15.304412714425771
aF245.8586331519102
aF0.0
aF302.32631033039837
aF0.0
aa(lp283
F4104.578355667556
aF0.0
aF60.42271192504599
aF0.0
aF2672.7998132340444
aF4050.658638385229
aF4795.523788924881
aF3947.8779562586265
aF0.0
aF0.0
aF3949.6103916715065
aF0.0
aF4856.738694300224
aF0.0
aa(lp284
F5981.383448250671
aF154.15825187511183
aF88.05080027473605
aF0.0
aF0.0
aF0.0
aF6988.261431813395
aF5753.03230127728
aF7307.8264346738715
aF358.2766928821851
aF0.0
aF8387.266539251308
aF7077.466653414959
aF0.0
aa(lp285
F5047.298985690895
aF0.0
aF74.30032178357041
aF2913.9450288920466
aF3286.6761497349853
aF0.0
aF5896.937580025943
aF4854.608361110184
aF6166.597622515231
aF0.0
aF4856.738694300224
aF0.0
aF5972.212042598576
aF5972.3755473083975
aa(lp286
F5047.437168519996
aF0.0
aF74.30235594653485
aF0.0
aF0.0
aF4981.131603966424
aF5897.0990239031835
aF0.0
aF6166.766449031716
aF302.334587292986
aF4856.871660049804
aF7077.660417320726
aF5972.3755473083975
aF5972.539056494583
aaa(lp287
(lp288
F4294.895688273776
aF110.69238697343138
aF0.0
aF2479.561836129694
aF2796.729748776077
aF0.0
aF5017.878247013772
aF4130.929548160284
aF5247.339936735415
aF0.0
aF0.0
aF6022.425281289826
aF5081.931509096497
aF0.0
aa(lp289
F0.0
aF0.0
aF0.0
aF63.90577052634677
aF72.08014212239355
aF109.23827848926219
aF129.32582326050795
aF0.0
aF0.0
aF6.630322679559136
aF106.51320646992123
aF155.2160234240863
aF0.0
aF130.9802544108305
aa(lp290
F63.22433693155376
aF1.6294814304509937
aF0.930713356170299
aF0.0
aF0.0
aF62.393791604527706
aF0.0
aF60.81062278333697
aF77.2450863149834
aF3.7870513638664773
aF60.83730812608473
aF0.0
aF74.81014052831058
aF74.81218864887822
aa(lp291
F2479.561836129694
aF63.90577052634677
aF36.50115494029495
aF1431.5194932387244
aF0.0
aF2446.9891181540324
aF2896.959624330602
aF2384.899657359453
aF0.0
aF148.52236478924283
aF2385.9462157050634
aF3476.912356497957
aF2933.939340642122
aF2934.0196647995876
aa(lp292
F2796.729748776077
aF72.08014212239355
aF41.170123043008594
aF1614.6292842378573
aF1821.1611772189124
aF0.0
aF0.0
aF2689.9590574413837
aF3416.9378648884285
aF167.52028923505404
aF0.0
aF3921.654253431717
aF0.0
aF3309.3185902744403
aa(lp293
F0.0
aF109.23827848926219
aF62.393791604527706
aF2446.9891181540324
aF0.0
aF4182.79721138643
aF4951.960982683191
aF0.0
aF5178.408353182536
aF0.0
aF0.0
aF5943.311803513794
aF5015.172810279047
aF5015.310113571228
aa(lp294
F0.0
aF0.0
aF0.0
aF2896.959624330602
aF0.0
aF4951.960982683191
aF0.0
aF4826.310817339366
aF0.0
aF300.56404829744463
aF4828.428732803361
aF0.0
aF5937.3999796857615
aF5937.562531325565
aa(lp295
F4130.929548160284
aF106.46648610195355
aF0.0
aF0.0
aF2689.9590574413837
aF4076.6636689275347
aF4826.310817339366
aF3973.223139843568
aF5047.0123530786195
aF0.0
aF3974.9666974071506
aF0.0
aF4887.918719416245
aF4888.052538799439
aa(lp296
F5247.339936735415
aF0.0
aF0.0
aF3029.4341918133564
aF3416.9378648884285
aF5178.408353182536
aF0.0
aF5047.0123530786195
aF0.0
aF314.30848987152086
aF0.0
aF7357.969782781529
aF6208.910320276974
aF6209.080305212704
aa(lp297
F257.2583812393292
aF0.0
aF3.7870513638664773
aF148.52236478924283
aF0.0
aF253.87891129553327
aF300.56404829744463
aF247.4370335640352
aF0.0
aF15.409425402012534
aF247.54561561346875
aF0.0
aF304.4007511448479
aF0.0
aa(lp298
F4132.74231155283
aF0.0
aF60.83730812608473
aF0.0
aF2691.139484086265
aF4078.452618987466
aF4828.428732803361
aF3974.9666974071506
aF0.0
aF0.0
aF3976.711020090857
aF0.0
aF4890.063670090662
aF0.0
aa(lp299
F6022.425281289826
aF155.2160234240863
aF88.65496923917465
aF0.0
aF0.0
aF0.0
aF7036.212054173567
aF5792.507281141168
aF7357.969782781529
aF360.7350425831045
aF0.0
aF8444.816568594355
aF7126.029365911614
aF0.0
aa(lp300
F5081.931509096497
aF0.0
aF74.81014052831058
aF2933.939340642122
aF3309.2279916221073
aF0.0
aF5937.3999796857615
aF4887.918719416245
aF6208.910320276974
aF0.0
aF4890.063670090662
aF0.0
aF6013.190945163074
aF6013.355571776057
aa(lp301
F5082.07064008026
aF0.0
aF74.81218864887822
aF0.0
aF0.0
aF5015.310113571228
aF5937.562531325565
aF0.0
aF6209.080305212704
aF304.4090849006038
aF4890.197548197414
aF7126.224459346901
aF6013.355571776057
aF6013.5202028961185
aaa(lp302
(lp303
F4265.626683923261
aF109.9380366489893
aF0.0
aF2462.664031983438
aF2777.670497719612
aF0.0
aF4983.682236003962
aF4102.777945957958
aF5211.580182230488
aF0.0
aF0.0
aF5981.383448250671
aF5047.298985690895
aF0.0
aa(lp304
F0.0
aF0.0
aF0.0
aF63.47026326113763
aF71.58892786563614
aF108.49383767383694
aF128.4444891470904
aF0.0
aF0.0
aF6.585138126210571
aF105.78733656996833
aF154.15825187511183
aF0.0
aF130.08764562253117
aa(lp305
F62.79347352368091
aF1.6183767837870087
aF0.9243706984556528
aF0.0
aF0.0
aF61.96858822580443
aF0.0
aF60.396208438499094
aF76.71867381710086
aF3.761243234661556
aF60.42271192504599
aF0.0
aF74.30032178357041
aF74.30235594653485
aa(lp306
F2462.664031983438
aF63.47026326113763
aF36.2524056014779
aF1421.763924462084
aF0.0
aF2430.3132916978843
aF2877.2173232360024
aF2368.6469603178516
aF0.0
aF147.51020941768542
aF2369.6863865412884
aF3453.2177733753574
aF2913.9450288920466
aF2914.0248056536534
aa(lp307
F2777.670497719612
aF71.58892786563614
aF40.88955545815501
aF1603.6258524958816
aF1808.7502647572799
aF0.0
aF0.0
aF2671.6274310016734
aF3393.651998014895
aF166.37866614795388
aF0.0
aF3894.928827778587
aF0.0
aF3286.766130972475
aa(lp308
F0.0
aF108.49383767383694
aF61.96858822580443
aF2430.3132916978843
aF0.0
aF4154.292139630753
aF4918.2141869364505
aF0.0
aF5143.11835602804
aF0.0
aF0.0
aF5902.809115751562
aF4980.995236373489
aF4981.131603966424
aa(lp309
F0.0
aF0.0
aF0.0
aF2877.2173232360024
aF0.0
aF4918.2141869364505
aF0.0
aF4793.420306704772
aF0.0
aF298.51575397885506
aF4795.523788924881
aF0.0
aF5896.937580025943
aF5897.0990239031835
aa(lp310
F4102.777945957958
aF105.74093459358745
aF0.0
aF0.0
aF2671.6274310016734
aF4048.8818797243184
aF4793.420306704772
aF3946.146280751703
aF5012.617797950616
aF0.0
aF3947.8779562586265
aF0.0
aF4854.608361110184
aF4854.741268536397
aa(lp311
F5211.580182230488
aF0.0
aF0.0
aF3008.7890984338196
aF3393.651998014895
aF5143.11835602804
aF0.0
aF5012.617797950616
aF0.0
aF312.16652945498026
aF0.0
aF7307.8264346738715
aF6166.597622515231
aF6166.766449031716
aa(lp312
F255.50520788514078
aF0.0
aF3.761243234661556
aF147.51020941768542
aF0.0
aF252.148768470528
aF298.51575397885506
aF245.75079107119947
aF0.0
aF15.304412714425771
aF245.8586331519102
aF0.0
aF302.32631033039837
aF0.0
aa(lp313
F4104.578355667556
aF0.0
aF60.42271192504599
aF0.0
aF2672.7998132340444
aF4050.658638385229
aF4795.523788924881
aF3947.8779562586265
aF0.0
aF0.0
aF3949.6103916715065
aF0.0
aF4856.738694300224
aF0.0
aa(lp314
F5981.383448250671
aF154.15825187511183
aF88.05080027473605
aF0.0
aF0.0
aF0.0
aF6988.261431813395
aF5753.03230127728
aF7307.8264346738715
aF358.2766928821851
aF0.0
aF8387.266539251308
aF7077.466653414959
aF0.0
aa(lp315
F5047.298985690895
aF0.0
aF74.30032178357041
aF2913.9450288920466
aF3286.6761497349853
aF0.0
aF5896.937580025943
aF4854.608361110184
aF6166.597622515231
aF0.0
aF4856.738694300224
aF0.0
aF5972.212042598576
aF5972.3755473083975
aa(lp316
F5047.437168519996
aF0.0
aF74.30235594653485
aF0.0
aF0.0
aF4981.131603966424
aF5897.0990239031835
aF0.0
aF6166.766449031716
aF302.334587292986
aF4856.871660049804
aF7077.660417320726
aF5972.3755473083975
aF5972.539056494583
aaa(lp317
(lp318
F4179.81430514889
aF107.72639340365096
aF0.0
aF2413.1221769722956
aF2721.7916010128124
aF0.0
aF4883.424604613269
aF4020.2416245183435
aF5106.737886889432
aF0.0
aF0.0
aF5861.054882229988
aF4945.76156471123
aF0.0
aa(lp319
F0.0
aF0.0
aF0.0
aF62.19342056592445
aF70.14876053519197
aF106.3112476388858
aF125.86054827019363
aF0.0
aF0.0
aF6.4526637188045735
aF103.65919370423474
aF151.0570226112009
aF0.0
aF127.47064907145
aa(lp320
F61.530245929273455
aF1.5858196071139083
aF0.9057749669532299
aF0.0
aF0.0
aF60.72195499721281
aF0.0
aF59.18120705673409
aF75.17531046524618
aF3.685577628402157
aF59.207177367877954
aF0.0
aF72.80560885428862
aF72.80760209563105
aa(lp321
F2413.1221769722956
aF62.19342056592445
aF35.52310944138942
aF1393.1620440224517
aF0.0
aF2381.4222423443207
aF2819.3358251461063
aF2320.9964636375803
aF0.0
aF144.542720018919
aF2322.014979536837
aF3383.748770690215
aF2855.3246729454263
aF2855.4028448235795
aa(lp322
F2721.7916010128124
aF70.14876053519197
aF40.06697292084218
aF1571.3654229591398
aF1772.3633105466404
aF0.0
aF0.0
aF2617.8818217299636
aF3325.381290740011
aF163.03159661341795
aF0.0
aF3816.5738444116064
aF0.0
aF3220.6456658983066
aa(lp323
F0.0
aF106.3112476388858
aF60.72195499721281
aF2381.4222423443207
aF0.0
aF4070.7194978970156
aF4819.273588057153
aF0.0
aF5039.653319551152
aF0.0
aF0.0
aF5784.061243702006
aF4880.791659837368
aF4880.925284098923
aa(lp324
F0.0
aF0.0
aF0.0
aF2819.3358251461063
aF0.0
aF4819.273588057153
aF0.0
aF4696.990208746599
aF0.0
aF292.5104588959317
aF4699.051374836771
aF0.0
aF5778.307826716025
aF5778.466022797767
aa(lp325
F4020.2416245183435
aF103.61372520475378
aF0.0
aF0.0
aF2617.8818217299636
aF3967.429795137292
aF4696.990208746599
aF3866.760946676595
aF4911.778064658888
aF0.0
aF3868.4577857560657
aF0.0
aF4756.94733206259
aF4757.077565766219
aa(lp326
F5106.737886889432
aF0.0
aF0.0
aF2948.2607472913946
aF3325.381290740011
aF5039.653319551152
aF0.0
aF4911.778064658888
aF0.0
aF305.8866192679889
aF0.0
aF7160.813576658637
aF6042.543069657426
aF6042.7084998605305
aa(lp327
F250.36516368940758
aF0.0
aF3.685577628402157
aF144.542720018919
aF0.0
aF247.0762463698402
aF292.5104588959317
aF240.80697823193162
aF0.0
aF14.996531092782847
aF240.91265083411938
aF0.0
aF296.24435760037903
aF0.0
aa(lp328
F4022.0058150621785
aF0.0
aF59.207177367877954
aF0.0
aF2619.0306189382227
aF3969.1708104248373
aF4699.051374836771
aF3868.4577857560657
aF0.0
aF0.0
aF3870.1553694543277
aF0.0
aF4759.034808956905
aF0.0
aa(lp329
F5861.054882229988
aF151.0570226112009
aF86.27946649791036
aF0.0
aF0.0
aF0.0
aF6847.677320404573
aF5637.297516327851
aF7160.813576658637
aF351.0691762489296
aF0.0
aF8218.538390615973
aF6935.087984527966
aF0.0
aa(lp330
F4945.76156471123
aF0.0
aF72.80560885428862
aF2855.3246729454263
aF3220.5574948295466
aF0.0
aF5778.307826716025
aF4756.94733206259
aF6042.543069657426
aF0.0
aF4759.034808956905
aF0.0
aF5852.067979394015
aF5852.228194850199
aa(lp331
F4945.896967691518
aF0.0
aF72.80760209563105
aF0.0
aF0.0
aF4880.925284098923
aF5778.466022797767
aF0.0
aF6042.7084998605305
aF296.25246805382244
aF4759.165099810599
aF6935.2778504504095
aF5852.228194850199
aF5852.388414692693
aaa(lp332
(lp333
F4043.306523752471
aF104.20817706967286
aF0.0
aF2334.3124666434896
aF2632.9011131220045
aF0.0
aF4723.937744737399
aF3888.9452977498313
aF4939.957879879653
aF0.0
aF0.0
aF5669.639776149728
aF4784.238853598742
aF0.0
aa(lp334
F0.0
aF0.0
aF0.0
aF60.16225716030366
aF67.85778515464176
aF102.83924828839012
aF121.75009193041399
aF0.0
aF0.0
aF6.241927369281554
aF100.27380729209781
aF146.12367928166532
aF0.0
aF123.30760874775189
aa(lp335
F59.520741021307956
aF1.5340286182186857
aF0.8761934300340211
aF0.0
aF0.0
aF58.73884791312253
aF0.0
aF57.24841897432452
aF72.72017392131971
aF3.5652110311115317
aF57.27354112588578
aF0.0
aF70.42786395646587
aF70.42979210090839
aa(lp336
F2334.3124666434896
aF60.16225716030366
aF34.362966788120644
aF1347.663022804946
aF0.0
aF2303.6478143105073
aF2727.259658502042
aF2245.195469921231
aF0.0
aF139.8221260914614
aF2246.180722298337
aF3273.2395461725664
aF2762.073153185304
aF2762.1487720625637
aa(lp337
F2632.9011131220045
aF67.85778515464176
aF38.758433071606056
aF1520.04649058768
aF1714.4800253841638
aF0.0
aF0.0
aF2532.384904079302
aF3216.778278941881
aF157.70717788893091
aF0.0
aF3691.9290659595003
aF0.0
aF3115.463195477505
aa(lp338
F0.0
aF102.83924828839012
aF58.73884791312253
aF2303.6478143105073
aF0.0
aF3937.774623609049
aF4661.88182435185
aF0.0
aF4875.064215003716
aF0.0
aF0.0
aF5595.160658605166
aF4721.39078881738
aF4721.52004906892
aa(lp339
F0.0
aF0.0
aF0.0
aF2727.259658502042
aF0.0
aF4661.88182435185
aF0.0
aF4543.592075282424
aF0.0
aF282.95741398435655
aF4545.585926130933
aF0.0
aF5589.595141399144
aF5589.748170984346
aa(lp340
F3888.9452977498313
aF100.22982373992177
aF0.0
aF0.0
aF2532.384904079302
aF3837.858240125126
aF4543.592075282424
aF3740.477116944993
aF4751.365214381728
aF0.0
aF3742.118539271179
aF0.0
aF4601.591070010574
aF4601.717050435792
aa(lp341
F4939.957879879653
aF0.0
aF0.0
aF2851.9740454886078
aF3216.778278941881
aF4875.064215003716
aF0.0
aF4751.365214381728
aF0.0
aF295.89672481174784
aF0.0
aF6926.949892059329
aF5845.200774470976
aF5845.360801919712
aa(lp342
F242.1885341697441
aF0.0
aF3.5652110311115317
aF139.8221260914614
aF0.0
aF239.00702899189253
aF282.95741398435655
aF232.94250772119068
aF0.0
aF14.506762160800289
aF233.04472918143148
aF0.0
aF286.56936798243845
aF0.0
aa(lp343
F3890.6518719213786
aF0.0
aF57.27354112588578
aF0.0
aF2533.4961829322647
aF3839.542395916787
aF4545.585926130933
aF3742.118539271179
aF0.0
aF0.0
aF3743.7606818977893
aF0.0
aF4603.610372383546
aF0.0
aa(lp344
F5669.639776149728
aF146.12367928166532
aF83.46168137832075
aF0.0
aF0.0
aF0.0
aF6624.040294813385
aF5453.190060626409
aF6926.949892059329
aF339.6036730309098
aF0.0
aF7950.130667181401
aF6708.596230243406
aF0.0
aa(lp345
F4784.238853598742
aF0.0
aF70.42786395646587
aF2762.073153185304
aF3115.377903971352
aF0.0
aF5589.595141399144
aF4601.591070010574
aF5845.200774470976
aF0.0
aF4603.610372383546
aF0.0
aF5660.94637490933
aF5661.101357918597
aa(lp346
F4784.36983447817
aF0.0
aF70.42979210090839
aF0.0
aF0.0
aF4721.52004906892
aF5589.748170984346
aF0.0
aF5845.360801919712
aF286.57721355808474
aF4603.736408092375
aF6708.7798953698475
aF5661.101357918597
aF5661.256345170925
aaa(lp347
(lp348
F3865.4061194463993
aF99.62314827608826
aF0.0
aF2231.605652516725
aF2517.05677389847
aF0.0
aF4516.090422312396
aF3717.8365933442565
aF4722.605943061874
aF0.0
aF0.0
aF5420.182753160844
aF4573.738358186849
aF0.0
aa(lp349
F0.0
aF0.0
aF0.0
aF57.5151934737121
aF64.87212791015422
aF98.31445064033598
aF116.39324093445718
aF0.0
aF0.0
aF5.967290411603224
aF95.86188582292911
aF139.6944210816777
aF0.0
aF117.88222896974746
aa(lp350
F56.90190323839839
aF1.4665332874058945
aF0.8376420205532693
aF0.0
aF0.0
aF56.15441244407494
aF0.0
aF54.72956050500328
aF69.52057768348507
aF3.40834622747983
aF54.753577313476264
aF0.0
aF67.32912647547954
aF67.33096978399041
aa(lp351
F2231.605652516725
aF57.5151934737121
aF32.85103944626547
aF1288.3675439148521
aF0.0
aF2202.2902063386296
aF2607.263661897542
aF2146.409691623508
aF0.0
aF133.67012831031857
aF2147.351594134557
aF3129.2211208481617
aF2640.54540657791
aF2640.617698319629
aa(lp352
F2517.05677389847
aF64.87212791015422
aF37.05311073870774
aF1453.1663558140717
aF1639.0450594970214
aF0.0
aF0.0
aF2420.963151697246
aF3075.244078399586
aF150.76826031154866
aF0.0
aF3529.4888280885457
aF0.0
aF2978.386731246997
aa(lp353
F0.0
aF98.31445064033598
aF56.15441244407494
aF2202.2902063386296
aF0.0
aF3764.5174902477875
aF4456.764884414873
aF0.0
aF4660.567517864283
aF0.0
aF0.0
aF5348.980623162415
aF4513.655529251143
aF4513.779102214106
aa(lp354
F0.0
aF0.0
aF0.0
aF2607.263661897542
aF0.0
aF4456.764884414873
aF0.0
aF4343.67973560543
aF0.0
aF270.50764346770023
aF4345.585859523025
aF0.0
aF5343.659981717186
aF5343.806278193009
aa(lp355
F3717.8365933442565
aF95.81983749175821
aF0.0
aF0.0
aF2420.963151697246
aF3668.997302034782
aF4343.67973560543
aF3575.9008258592116
aF4542.311117770758
aF0.0
aF3577.470027666436
aF0.0
aF4399.126847474621
aF4399.247284919496
aa(lp356
F4722.605943061874
aF0.0
aF0.0
aF2726.490772632021
aF3075.244078399586
aF4660.567517864283
aF0.0
aF4542.311117770758
aF0.0
aF282.8776408843688
aF0.0
aF6622.172804503377
aF5588.019288249277
aF5588.172274691435
aa(lp357
F231.5325431153963
aF0.0
aF3.40834622747983
aF133.67012831031857
aF0.0
aF228.49102016598
aF270.50764346770023
aF222.6933302076317
aF0.0
aF13.868482861811284
aF222.79105405212192
aF0.0
aF273.9606760303632
aF0.0
aa(lp358
F3719.4680803975475
aF0.0
aF54.753577313476264
aF0.0
aF2422.025535677639
aF3670.6073570887197
aF4345.585859523025
aF3577.470027666436
aF0.0
aF0.0
aF3579.0399180817717
aF0.0
aF4401.057303081596
aF0.0
aa(lp359
F5420.182753160844
aF139.6944210816777
aF79.78947231525719
aF0.0
aF0.0
aF0.0
aF6332.590848756211
aF5213.256553027052
aF6622.172804503377
aF324.6615383247941
aF0.0
aF7600.334911734922
aF6413.426429320453
aF0.0
aa(lp360
F4573.738358186849
aF0.0
aF67.32912647547954
aF2640.54540657791
aF2978.305192459897
aF0.0
aF5343.659981717186
aF4399.126847474621
aF5588.019288249277
aF0.0
aF4401.057303081596
aF0.0
aF5411.871850646768
aF5412.020014598453
aa(lp361
F4573.8635760722345
aF0.0
aF67.33096978399041
aF0.0
aF0.0
aF4513.779102214106
aF5343.806278193009
aF0.0
aF5588.172274691435
aF273.96817641054344
aF4401.177793377674
aF6413.602013412212
aF5412.020014598453
aF5412.168182606508
aaa(lp362
(lp363
F3658.2367107898117
aF94.28376915806156
aF0.0
aF2112.0010342437035
aF2382.1531836184695
aF0.0
aF4274.047088877582
aF3518.5762867363546
aF4469.494251739169
aF0.0
aF0.0
aF5129.683897132804
aF4328.605339369352
aF0.0
aa(lp364
F0.0
aF0.0
aF0.0
aF54.4326225219114
aF61.39525640890923
aF93.04521217685658
aF110.15505582508278
aF0.0
aF0.0
aF5.647468900576326
aF90.72409445380752
aF132.20739133271556
aF0.0
aF111.56424040344369
aa(lp365
F53.85220204761597
aF1.3879333099291182
aF0.7927479533578712
aF0.0
aF0.0
aF53.14477359630408
aF0.0
aF51.79628769084415
aF65.79456894776789
aF3.2256732946432063
aF51.819017300028
aF0.0
aF63.720570249753024
aF63.72231476472905
aa(lp366
F2112.0010342437035
aF54.4326225219114
aF31.09036276559323
aF1219.3164962481178
aF0.0
aF2084.2567719106037
aF2467.5253641984423
aF2031.3712162841832
aF0.0
aF126.5059751576183
aF2032.2626368070025
aF2961.508112401157
aF2499.0233482204403
aF2499.0917654307596
aa(lp367
F2382.1531836184695
aF61.39525640890923
aF35.06722082095583
aF1375.2827892984878
aF1551.1991811482465
aF0.0
aF0.0
aF2291.2097728754784
aF2910.4240109837574
aF142.6877196470662
aF0.0
aF3340.323164564461
aF0.0
aF2818.757807714523
aa(lp368
F0.0
aF93.04521217685658
aF53.14477359630408
aF2084.2567719106037
aF0.0
aF3562.7552851308487
aF4217.9011487311545
aF0.0
aF4410.780823570354
aF0.0
aF0.0
aF5062.2978999574325
aF4271.742695779348
aF4271.859645754487
aa(lp369
F0.0
aF0.0
aF0.0
aF2467.5253641984423
aF0.0
aF4217.9011487311545
aF0.0
aF4110.876885293842
aF0.0
aF256.00957863245424
aF4112.680849036637
aF0.0
aF5057.262422375409
aF5057.40087797929
aa(lp370
F3518.5762867363546
aF90.68429973522854
aF0.0
aF0.0
aF2291.2097728754784
aF3472.354574741221
aF4110.876885293842
aF3384.2476756815654
aF4298.862466031783
aF0.0
aF3385.7327749131687
aF0.0
aF4163.352266632606
aF4163.466249140157
aa(lp371
F4469.494251739169
aF0.0
aF0.0
aF2580.3624063958973
aF2910.4240109837574
aF4410.780823570354
aF0.0
aF4298.862466031783
aF0.0
aF267.7165965404492
aF0.0
aF6267.252368839768
aF5288.525104265835
aF5288.669891282168
aa(lp372
F219.12337870686005
aF0.0
aF3.2256732946432063
aF126.5059751576183
aF0.0
aF216.24486851506214
aF256.00957863245424
aF210.75791020123697
aF0.0
aF13.125190875235512
aF210.85039646125378
aF0.0
aF259.27754326383825
aF0.0
aa(lp373
F3520.120332988442
aF0.0
aF51.819017300028
aF0.0
aF2292.2152175707915
aF3473.8783376584156
aF4112.680849036637
aF3385.7327749131687
aF0.0
aF0.0
aF3387.2185258464033
aF0.0
aF4165.179257989208
aF0.0
aa(lp374
F5129.683897132804
aF132.20739133271556
aF75.51309428775502
aF0.0
aF0.0
aF0.0
aF5993.190780338864
aF4933.848065563807
aF6267.252368839768
aF307.2610539177589
aF0.0
aF7192.989126945393
aF6069.693915900845
aF0.0
aa(lp375
F4328.605339369352
aF0.0
aF63.720570249753024
aF2499.0233482204403
aF2818.6806390613197
aF0.0
aF5057.262422375409
aF4163.352266632606
aF5288.525104265835
aF0.0
aF4165.179257989208
aF0.0
aF5121.8184238197055
aF5121.958646810647
aa(lp376
F4328.723846106034
aF0.0
aF63.72231476472905
aF0.0
aF0.0
aF4271.859645754487
aF5057.40087797929
aF0.0
aF5288.669891282168
aF259.28464165538435
aF4165.29329051536
aF6069.8600894284
aF5121.958646810647
aF5122.098873640553
aaaa.